ARM GAS  /var/folders/vt/qg0v_q5n5k99pnp_yg24c7s80000gn/T//cc1k8pKa.s 			page 1


   1              		.syntax unified
   2              		.cpu cortex-m3
   3              		.fpu softvfp
   4              		.eabi_attribute 20, 1
   5              		.eabi_attribute 21, 1
   6              		.eabi_attribute 23, 3
   7              		.eabi_attribute 24, 1
   8              		.eabi_attribute 25, 1
   9              		.eabi_attribute 26, 1
  10              		.eabi_attribute 30, 2
  11              		.eabi_attribute 34, 1
  12              		.eabi_attribute 18, 4
  13              		.thumb
  14              		.syntax unified
  15              		.file	"main.c"
  16              		.text
  17              	.Ltext0:
  18              		.cfi_sections	.debug_frame
  19              		.section	.text.cmd_apollo,"ax",%progbits
  20              		.align	2
  21              		.p2align 4,,15
  22              		.thumb
  23              		.thumb_func
  24              		.type	cmd_apollo, %function
  25              	cmd_apollo:
  26              	.LFB64:
  27              		.file 1 "main.c"
  28              		.loc 1 61 0
  29              		.cfi_startproc
  30              		@ args = 0, pretend = 0, frame = 0
  31              		@ frame_needed = 0, uses_anonymous_args = 0
  32              	.LVL0:
  33 0000 10B5     		push	{r4, lr}
  34              		.cfi_def_cfa_offset 8
  35              		.cfi_offset 4, -8
  36              		.cfi_offset 14, -4
  37              		.loc 1 61 0
  38 0002 0446     		mov	r4, r0
  39              		.loc 1 65 0
  40 0004 FFF7FEFF 		bl	apolloInit
  41              	.LVL1:
  42              		.loc 1 68 0
  43 0008 6369     		ldr	r3, [r4, #20]
  44 000a 23B9     		cbnz	r3, .L3
  45              	.L2:
  46              		.loc 1 70 0
  47 000c FFF7FEFF 		bl	apolloUpdate
  48              	.LVL2:
  49              		.loc 1 68 0
  50 0010 6369     		ldr	r3, [r4, #20]
  51 0012 002B     		cmp	r3, #0
  52 0014 FAD0     		beq	.L2
  53              	.L3:
  54              		.loc 1 74 0
  55 0016 BDE81040 		pop	{r4, lr}
  56              		.cfi_restore 14
  57              		.cfi_restore 4
ARM GAS  /var/folders/vt/qg0v_q5n5k99pnp_yg24c7s80000gn/T//cc1k8pKa.s 			page 2


  58              		.cfi_def_cfa_offset 0
  59              	.LVL3:
  60              		.loc 1 73 0
  61 001a FFF7FEBF 		b	apolloDeinit
  62              	.LVL4:
  63              		.cfi_endproc
  64              	.LFE64:
  65              		.size	cmd_apollo, .-cmd_apollo
  66 001e 00BF     		.section	.text.cmd_sm,"ax",%progbits
  67              		.align	2
  68              		.p2align 4,,15
  69              		.thumb
  70              		.thumb_func
  71              		.type	cmd_sm, %function
  72              	cmd_sm:
  73              	.LFB65:
  74              		.loc 1 78 0
  75              		.cfi_startproc
  76              		@ args = 0, pretend = 0, frame = 0
  77              		@ frame_needed = 0, uses_anonymous_args = 0
  78              		@ link register save eliminated.
  79              	.LVL5:
  80              		.loc 1 83 0
  81 0000 FFF7FEBF 		b	SmartMotorDebugStatus
  82              	.LVL6:
  83              		.cfi_endproc
  84              	.LFE65:
  85              		.size	cmd_sm, .-cmd_sm
  86              		.section	.text.startup.main,"ax",%progbits
  87              		.align	2
  88              		.p2align 4,,15
  89              		.global	main
  90              		.thumb
  91              		.thumb_func
  92              		.type	main, %function
  93              	main:
  94              	.LFB66:
  95              		.loc 1 112 0
  96              		.cfi_startproc
  97              		@ args = 0, pretend = 0, frame = 0
  98              		@ frame_needed = 0, uses_anonymous_args = 0
  99              	.LVL7:
 100 0000 10B5     		push	{r4, lr}
 101              		.cfi_def_cfa_offset 8
 102              		.cfi_offset 4, -8
 103              		.cfi_offset 14, -4
 104              		.loc 1 121 0
 105 0002 FFF7FEFF 		bl	halInit
 106              	.LVL8:
 107              		.loc 1 131 0
 108 0006 3324     		movs	r4, #51
 109              		.loc 1 122 0
 110 0008 FFF7FEFF 		bl	chSysInit
 111              	.LVL9:
 112              		.loc 1 125 0
 113 000c FFF7FEFF 		bl	vexConsoleInit
 114              	.LVL10:
ARM GAS  /var/folders/vt/qg0v_q5n5k99pnp_yg24c7s80000gn/T//cc1k8pKa.s 			page 3


 115              		.loc 1 128 0
 116 0010 FFF7FEFF 		bl	vexCortexInit
 117              	.LVL11:
 118              		.loc 1 131 0
 119 0014 05E0     		b	.L12
 120              	.LVL12:
 121              	.L14:
 122 0016 013C     		subs	r4, r4, #1
 123              	.LVL13:
 124              		.loc 1 134 0
 125 0018 6420     		movs	r0, #100
 126 001a A4B2     		uxth	r4, r4
 127 001c FFF7FEFF 		bl	chThdSleep
 128              	.LVL14:
 129              		.loc 1 136 0
 130 0020 1CB1     		cbz	r4, .L15
 131              	.L12:
 132              	.LVL15:
 133              		.loc 1 131 0
 134 0022 FFF7FEFF 		bl	vexSpiGetOnlineStatus
 135              	.LVL16:
 136 0026 0028     		cmp	r0, #0
 137 0028 F5D0     		beq	.L14
 138              	.LVL17:
 139              	.L15:
 140              		.loc 1 113 0
 141 002a 0024     		movs	r4, #0
 142              		.loc 1 141 0
 143 002c FFF7FEFF 		bl	shellInit
 144              	.LVL18:
 145              		.loc 1 147 0
 146 0030 3CB1     		cbz	r4, .L20
 147              	.L16:
 148              		.loc 1 150 0
 149 0032 237F     		ldrb	r3, [r4, #28]	@ zero_extendqisi2
 150 0034 0E2B     		cmp	r3, #14
 151 0036 0CD0     		beq	.L21
 152              	.LVL19:
 153              	.L17:
 154              		.loc 1 155 0
 155 0038 3220     		movs	r0, #50
 156 003a FFF7FEFF 		bl	chThdSleep
 157              	.LVL20:
 158              		.loc 1 147 0
 159 003e 002C     		cmp	r4, #0
 160 0040 F7D1     		bne	.L16
 161              	.L20:
 162              	.LVL21:
 163              		.loc 1 148 0
 164 0042 4022     		movs	r2, #64
 165 0044 4FF40B61 		mov	r1, #2224
 166 0048 0448     		ldr	r0, .L22
 167 004a FFF7FEFF 		bl	shellCreate
 168              	.LVL22:
 169 004e 0446     		mov	r4, r0
 170              	.LVL23:
 171 0050 F2E7     		b	.L17
ARM GAS  /var/folders/vt/qg0v_q5n5k99pnp_yg24c7s80000gn/T//cc1k8pKa.s 			page 4


 172              	.LVL24:
 173              	.L21:
 174              		.loc 1 152 0
 175 0052 2046     		mov	r0, r4
 176 0054 FFF7FEFF 		bl	chThdRelease
 177              	.LVL25:
 178              		.loc 1 153 0
 179 0058 0024     		movs	r4, #0
 180 005a EDE7     		b	.L17
 181              	.L23:
 182              		.align	2
 183              	.L22:
 184 005c 00000000 		.word	.LANCHOR0
 185              		.cfi_endproc
 186              	.LFE66:
 187              		.size	main, .-main
 188              		.section	.rodata.commands,"a",%progbits
 189              		.align	2
 190              		.type	commands, %object
 191              		.size	commands, 88
 192              	commands:
 193 0000 00000000 		.word	.LC0
 194 0004 00000000 		.word	vexAdcDebug
 195 0008 04000000 		.word	.LC1
 196 000c 00000000 		.word	vexSpiDebug
 197 0010 08000000 		.word	.LC2
 198 0014 00000000 		.word	vexMotorDebug
 199 0018 10000000 		.word	.LC3
 200 001c 00000000 		.word	vexLcdDebug
 201 0020 14000000 		.word	.LC4
 202 0024 00000000 		.word	vexEncoderDebug
 203 0028 18000000 		.word	.LC5
 204 002c 00000000 		.word	vexSonarDebug
 205 0030 1C000000 		.word	.LC6
 206 0034 00000000 		.word	vexIMEDebug
 207 0038 20000000 		.word	.LC7
 208 003c 00000000 		.word	vexTestDebug
 209 0040 28000000 		.word	.LC8
 210 0044 00000000 		.word	cmd_sm
 211 0048 2C000000 		.word	.LC9
 212 004c 00000000 		.word	cmd_apollo
 213 0050 00000000 		.word	0
 214 0054 00000000 		.word	0
 215              		.section	.rodata.shell_cfg1,"a",%progbits
 216              		.align	2
 217              		.set	.LANCHOR0,. + 0
 218              		.type	shell_cfg1, %object
 219              		.size	shell_cfg1, 8
 220              	shell_cfg1:
 221 0000 00000000 		.word	SD1
 222 0004 00000000 		.word	commands
 223              		.section	.rodata.str1.4,"aMS",%progbits,1
 224              		.align	2
 225              	.LC0:
 226 0000 61646300 		.ascii	"adc\000"
 227              	.LC1:
 228 0004 73706900 		.ascii	"spi\000"
ARM GAS  /var/folders/vt/qg0v_q5n5k99pnp_yg24c7s80000gn/T//cc1k8pKa.s 			page 5


 229              	.LC2:
 230 0008 6D6F746F 		.ascii	"motor\000"
 230      7200
 231 000e 0000     		.space	2
 232              	.LC3:
 233 0010 6C636400 		.ascii	"lcd\000"
 234              	.LC4:
 235 0014 656E6300 		.ascii	"enc\000"
 236              	.LC5:
 237 0018 736F6E00 		.ascii	"son\000"
 238              	.LC6:
 239 001c 696D6500 		.ascii	"ime\000"
 240              	.LC7:
 241 0020 74657374 		.ascii	"test\000"
 241      00
 242 0025 000000   		.space	3
 243              	.LC8:
 244 0028 736D00   		.ascii	"sm\000"
 245 002b 00       		.space	1
 246              	.LC9:
 247 002c 61706F6C 		.ascii	"apollo\000"
 247      6C6F00
 248              		.text
 249              	.Letext0:
 250              		.file 2 "/usr/local/gcc-arm-none-eabi-5_2-2015q4/lib/gcc/arm-none-eabi/5.2.1/include/stddef.h"
 251              		.file 3 "/usr/local/gcc-arm-none-eabi-5_2-2015q4/arm-none-eabi/include/machine/_default_types.h"
 252              		.file 4 "/usr/local/gcc-arm-none-eabi-5_2-2015q4/arm-none-eabi/include/sys/_stdint.h"
 253              		.file 5 "../../ChibiOS/os/ports/GCC/ARMCMx/chtypes.h"
 254              		.file 6 "../../ChibiOS/os/kernel/include/chlists.h"
 255              		.file 7 "../../ChibiOS/os/kernel/include/chthreads.h"
 256              		.file 8 "../../ChibiOS/os/ports/GCC/ARMCMx/chcore_v7m.h"
 257              		.file 9 "../../ChibiOS/os/kernel/include/chmtx.h"
 258              		.file 10 "../../ChibiOS/os/kernel/include/chevents.h"
 259              		.file 11 "../../ChibiOS/os/kernel/include/chqueues.h"
 260              		.file 12 "../../ChibiOS/os/kernel/include/chstreams.h"
 261              		.file 13 "../../ChibiOS/os/hal/platforms/STM32F1xx/stm32f10x.h"
 262              		.file 14 "../../ChibiOS/os/hal/include/serial.h"
 263              		.file 15 "../../convex/convex/cortex/fw/vexcompat.h"
 264              		.file 16 "../../convex/convex/cortex/fw/vexdigital.h"
 265              		.file 17 "../../convex/convex/cortex/fw/vexime.h"
 266              		.file 18 "../../convex/convex/cortex/fw/vexshell.h"
 267              		.file 19 "../../convex/convex/cortex/opt/apollo.h"
 268              		.file 20 "../../convex/convex/cortex/opt/smartmotor.h"
 269              		.file 21 "../../ChibiOS/os/hal/include/hal.h"
 270              		.file 22 "../../ChibiOS/os/kernel/include/chsys.h"
 271              		.file 23 "../../convex/convex/cortex/fw/vex.h"
 272              		.file 24 "../../convex/convex/cortex/fw/vexspi.h"
 273              		.file 25 "../../ChibiOS/os/kernel/include/chdynamic.h"
 274              		.file 26 "../../ChibiOS/os/ports/common/ARMCMx/CMSIS/include/core_cm3.h"
 275              		.file 27 "../../ChibiOS/os/hal/platforms/STM32/USARTv1/serial_lld.h"