ARM GAS  /var/folders/vt/qg0v_q5n5k99pnp_yg24c7s80000gn/T//ccOVZxDV.s 			page 1


   1              		.syntax unified
   2              		.cpu cortex-m3
   3              		.fpu softvfp
   4              		.eabi_attribute 20, 1
   5              		.eabi_attribute 21, 1
   6              		.eabi_attribute 23, 3
   7              		.eabi_attribute 24, 1
   8              		.eabi_attribute 25, 1
   9              		.eabi_attribute 26, 1
  10              		.eabi_attribute 30, 2
  11              		.eabi_attribute 34, 1
  12              		.eabi_attribute 18, 4
  13              		.thumb
  14              		.syntax unified
  15              		.file	"vexcortex.c"
  16              		.text
  17              	.Ltext0:
  18              		.cfi_sections	.debug_frame
  19              		.section	.text.vexCortexMonitorTask,"ax",%progbits
  20              		.align	2
  21              		.p2align 4,,15
  22              		.thumb
  23              		.thumb_func
  24              		.type	vexCortexMonitorTask, %function
  25              	vexCortexMonitorTask:
  26              	.LFB71:
  27              		.file 1 "../../convex/convex/cortex/fw/vexcortex.c"
  28              		.loc 1 341 0
  29              		.cfi_startproc
  30              		@ args = 0, pretend = 0, frame = 0
  31              		@ frame_needed = 0, uses_anonymous_args = 0
  32              	.LVL0:
  33 0000 2DE9F041 		push	{r4, r5, r6, r7, r8, lr}
  34              		.cfi_def_cfa_offset 24
  35              		.cfi_offset 4, -24
  36              		.cfi_offset 5, -20
  37              		.cfi_offset 6, -16
  38              		.cfi_offset 7, -12
  39              		.cfi_offset 8, -8
  40              		.cfi_offset 14, -4
  41              		.loc 1 348 0
  42 0004 474B     		ldr	r3, .L36
  43 0006 4849     		ldr	r1, .L36+4
  44 0008 9A69     		ldr	r2, [r3, #24]
  45              		.loc 1 349 0
  46 000a 484F     		ldr	r7, .L36+8
  47 000c 484B     		ldr	r3, .L36+12
  48              		.loc 1 348 0
  49 000e 9161     		str	r1, [r2, #24]
  50              		.loc 1 341 0
  51 0010 82B0     		sub	sp, sp, #8
  52              		.cfi_def_cfa_offset 32
  53              		.loc 1 349 0
  54 0012 3F60     		str	r7, [r7]
  55              	.LVL1:
  56 0014 03F5F071 		add	r1, r3, #480
  57              		.loc 1 354 0
ARM GAS  /var/folders/vt/qg0v_q5n5k99pnp_yg24c7s80000gn/T//ccOVZxDV.s 			page 2


  58 0018 0022     		movs	r2, #0
  59              	.LVL2:
  60              	.L2:
  61              		.loc 1 354 0 is_stmt 0 discriminator 3
  62 001a 1A60     		str	r2, [r3]
  63              		.loc 1 355 0 is_stmt 1 discriminator 3
  64 001c 1A75     		strb	r2, [r3, #20]
  65 001e 1833     		adds	r3, r3, #24
  66              		.loc 1 352 0 discriminator 3
  67 0020 8B42     		cmp	r3, r1
  68 0022 FAD1     		bne	.L2
  69              		.loc 1 361 0
  70 0024 7820     		movs	r0, #120
  71              	.LVL3:
  72 0026 FFF7FEFF 		bl	chThdSleep
  73              	.LVL4:
  74              		.loc 1 365 0
  75 002a FFF7FEFF 		bl	vexSpiGetOnlineStatus
  76              	.LVL5:
  77 002e 30B9     		cbnz	r0, .L34
  78              	.L4:
  79              		.loc 1 368 0
  80 0030 6420     		movs	r0, #100
  81 0032 FFF7FEFF 		bl	chThdSleep
  82              	.LVL6:
  83              		.loc 1 365 0
  84 0036 FFF7FEFF 		bl	vexSpiGetOnlineStatus
  85              	.LVL7:
  86 003a 0028     		cmp	r0, #0
  87 003c F8D0     		beq	.L4
  88              	.L34:
  89              		.loc 1 373 0
  90 003e 4FF4FA60 		mov	r0, #2000
  91 0042 FFF7FEFF 		bl	chThdSleep
  92              	.LVL8:
  93              		.loc 1 376 0
  94 0046 3B4B     		ldr	r3, .L36+16
  95 0048 0BB1     		cbz	r3, .L5
  96              		.loc 1 377 0
  97 004a FFF7FEFF 		bl	vexUserInit
  98              	.LVL9:
  99              	.L5:
 100 004e 3A4E     		ldr	r6, .L36+20
 101              	.LVL10:
 102              	.L6:
 103              		.loc 1 381 0
 104 0050 1020     		movs	r0, #16
 105 0052 FFF7FEFF 		bl	chThdSleep
 106              	.LVL11:
 107              		.loc 1 384 0
 108 0056 FFF7FEFF 		bl	vexControllerCompetitonState
 109              	.LVL12:
 110 005a 00F08000 		and	r0, r0, #128
 111 005e 84B2     		uxth	r4, r0
 112 0060 002C     		cmp	r4, #0
 113 0062 F5D1     		bne	.L6
 114              		.loc 1 386 0
ARM GAS  /var/folders/vt/qg0v_q5n5k99pnp_yg24c7s80000gn/T//ccOVZxDV.s 			page 3


 115 0064 FFF7FEFF 		bl	vexControllerCompetitonState
 116              	.LVL13:
 117 0068 00F04000 		and	r0, r0, #64
 118 006c 85B2     		uxth	r5, r0
 119 006e 002D     		cmp	r5, #0
 120 0070 4DD1     		bne	.L7
 121              		.loc 1 390 0
 122 0072 0095     		str	r5, [sp]
 123 0074 314B     		ldr	r3, .L36+24
 124 0076 4122     		movs	r2, #65
 125 0078 4FF42C71 		mov	r1, #688
 126 007c 3048     		ldr	r0, .L36+28
 127 007e FFF7FEFF 		bl	chThdCreateStatic
 128              	.LVL14:
 129 0082 2C46     		mov	r4, r5
 130 0084 0546     		mov	r5, r0
 131              	.LVL15:
 132 0086 03E0     		b	.L9
 133              	.LVL16:
 134              	.L12:
 135              		.loc 1 404 0
 136 0088 FFF7FEFF 		bl	chThdSleep
 137              	.LVL17:
 138              		.loc 1 407 0
 139 008c 3378     		ldrb	r3, [r6]	@ zero_extendqisi2
 140 008e 3BB9     		cbnz	r3, .L13
 141              	.L9:
 142              		.loc 1 402 0
 143 0090 FFF7FEFF 		bl	vexControllerCompetitonState
 144              	.LVL18:
 145 0094 00F0C003 		and	r3, r0, #192
 146 0098 9C42     		cmp	r4, r3
 147              		.loc 1 404 0
 148 009a 4FF01000 		mov	r0, #16
 149              		.loc 1 402 0
 150 009e F3D0     		beq	.L12
 151              	.L13:
 152              		.loc 1 412 0
 153 00a0 3220     		movs	r0, #50
 154 00a2 FFF7FEFF 		bl	chThdSleep
 155              	.LVL19:
 156              	.LBB2:
 157              		.loc 1 413 0
 158 00a6 2023     		movs	r3, #32
 159              		.syntax unified
 160              	@ 413 "../../convex/convex/cortex/fw/vexcortex.c" 1
 161 00a8 83F31188 		msr     BASEPRI, r3
 162              	@ 0 "" 2
 163              		.thumb
 164              		.syntax unified
 165              	.LBE2:
 166              		.loc 1 414 0
 167 00ac 3B68     		ldr	r3, [r7]
 168 00ae BB42     		cmp	r3, r7
 169 00b0 03D0     		beq	.L11
 170              		.loc 1 415 0
 171 00b2 0021     		movs	r1, #0
ARM GAS  /var/folders/vt/qg0v_q5n5k99pnp_yg24c7s80000gn/T//ccOVZxDV.s 			page 4


 172 00b4 1D48     		ldr	r0, .L36+8
 173 00b6 FFF7FEFF 		bl	chEvtBroadcastFlagsI
 174              	.LVL20:
 175              	.L11:
 176              	.LBB3:
 177              		.loc 1 416 0
 178 00ba 0023     		movs	r3, #0
 179              		.syntax unified
 180              	@ 416 "../../convex/convex/cortex/fw/vexcortex.c" 1
 181 00bc 83F31188 		msr     BASEPRI, r3
 182              	@ 0 "" 2
 183              		.thumb
 184              		.syntax unified
 185              	.LBE3:
 186              		.loc 1 417 0
 187 00c0 3220     		movs	r0, #50
 188 00c2 204C     		ldr	r4, .L36+32
 189 00c4 FFF7FEFF 		bl	chThdSleep
 190              	.LVL21:
 191              		.loc 1 420 0
 192 00c8 2846     		mov	r0, r5
 193 00ca FFF7FEFF 		bl	chThdWait
 194              	.LVL22:
 195 00ce 04F5F078 		add	r8, r4, #480
 196              		.loc 1 423 0
 197 00d2 FFF7FEFF 		bl	vexMotorStopAll
 198              	.LVL23:
 199 00d6 02E0     		b	.L15
 200              	.LVL24:
 201              	.L14:
 202 00d8 1834     		adds	r4, r4, #24
 203              		.loc 1 426 0 discriminator 2
 204 00da 4445     		cmp	r4, r8
 205 00dc 0DD0     		beq	.L35
 206              	.L15:
 207              		.loc 1 428 0
 208 00de 54F8140C 		ldr	r0, [r4, #-20]
 209 00e2 0028     		cmp	r0, #0
 210 00e4 F8D0     		beq	.L14
 211              		.loc 1 428 0 is_stmt 0 discriminator 1
 212 00e6 2578     		ldrb	r5, [r4]	@ zero_extendqisi2
 213 00e8 002D     		cmp	r5, #0
 214 00ea F5D1     		bne	.L14
 215              		.loc 1 430 0 is_stmt 1
 216 00ec FFF7FEFF 		bl	chThdWait
 217              	.LVL25:
 218 00f0 1834     		adds	r4, r4, #24
 219              		.loc 1 431 0
 220 00f2 44F82C5C 		str	r5, [r4, #-44]
 221              		.loc 1 426 0
 222 00f6 4445     		cmp	r4, r8
 223 00f8 F1D1     		bne	.L15
 224              	.L35:
 225              		.loc 1 436 0
 226 00fa 3378     		ldrb	r3, [r6]	@ zero_extendqisi2
 227 00fc 002B     		cmp	r3, #0
 228 00fe A7D0     		beq	.L6
ARM GAS  /var/folders/vt/qg0v_q5n5k99pnp_yg24c7s80000gn/T//ccOVZxDV.s 			page 5


 229              	.L24:
 230              		.loc 1 437 0
 231 0100 3220     		movs	r0, #50
 232 0102 FFF7FEFF 		bl	chThdSleep
 233              	.LVL26:
 234              		.loc 1 436 0
 235 0106 3378     		ldrb	r3, [r6]	@ zero_extendqisi2
 236 0108 002B     		cmp	r3, #0
 237 010a F9D1     		bne	.L24
 238 010c A0E7     		b	.L6
 239              	.L7:
 240              		.loc 1 397 0
 241 010e 0094     		str	r4, [sp]
 242 0110 0D4B     		ldr	r3, .L36+36
 243 0112 4122     		movs	r2, #65
 244 0114 4FF42C71 		mov	r1, #688
 245 0118 0948     		ldr	r0, .L36+28
 246 011a FFF7FEFF 		bl	chThdCreateStatic
 247              	.LVL27:
 248 011e 4024     		movs	r4, #64
 249 0120 0546     		mov	r5, r0
 250              	.LVL28:
 251 0122 B5E7     		b	.L9
 252              	.L37:
 253              		.align	2
 254              	.L36:
 255 0124 00000000 		.word	rlist
 256 0128 00000000 		.word	.LC0
 257 012c 00000000 		.word	.LANCHOR0
 258 0130 00000000 		.word	.LANCHOR1
 259 0134 00000000 		.word	vexUserInit
 260 0138 00000000 		.word	.LANCHOR3
 261 013c 00000000 		.word	vexOperator
 262 0140 00000000 		.word	.LANCHOR2
 263 0144 14000000 		.word	.LANCHOR1+20
 264 0148 00000000 		.word	vexAutonomous
 265              		.cfi_endproc
 266              	.LFE71:
 267              		.size	vexCortexMonitorTask, .-vexCortexMonitorTask
 268              		.section	.text.vexCortexSystemTask,"ax",%progbits
 269              		.align	2
 270              		.p2align 4,,15
 271              		.thumb
 272              		.thumb_func
 273              		.type	vexCortexSystemTask, %function
 274              	vexCortexSystemTask:
 275              	.LFB72:
 276              		.loc 1 452 0
 277              		.cfi_startproc
 278              		@ args = 0, pretend = 0, frame = 0
 279              		@ frame_needed = 0, uses_anonymous_args = 0
 280              	.LVL29:
 281              		.loc 1 456 0
 282 0000 114B     		ldr	r3, .L43
 283 0002 124A     		ldr	r2, .L43+4
 284 0004 9B69     		ldr	r3, [r3, #24]
 285              		.loc 1 452 0
ARM GAS  /var/folders/vt/qg0v_q5n5k99pnp_yg24c7s80000gn/T//ccOVZxDV.s 			page 6


 286 0006 2DE9F041 		push	{r4, r5, r6, r7, r8, lr}
 287              		.cfi_def_cfa_offset 24
 288              		.cfi_offset 4, -24
 289              		.cfi_offset 5, -20
 290              		.cfi_offset 6, -16
 291              		.cfi_offset 7, -12
 292              		.cfi_offset 8, -8
 293              		.cfi_offset 14, -4
 294              		.loc 1 461 0
 295 000a 7820     		movs	r0, #120
 296              	.LVL30:
 297              		.loc 1 456 0
 298 000c 9A61     		str	r2, [r3, #24]
 299              		.loc 1 461 0
 300 000e FFF7FEFF 		bl	chThdSleep
 301              	.LVL31:
 302              	.L40:
 303              		.loc 1 465 0
 304 0012 1020     		movs	r0, #16
 305 0014 FFF7FEFF 		bl	chThdSleep
 306              	.LVL32:
 307              		.loc 1 469 0
 308 0018 0025     		movs	r5, #0
 309              	.LVL33:
 310              	.L39:
 311 001a 6C1C     		adds	r4, r5, #1
 312 001c A4B2     		uxth	r4, r4
 313 001e A6B2     		uxth	r6, r4
 314              		.loc 1 470 0 discriminator 3
 315 0020 37B2     		sxth	r7, r6
 316 0022 3846     		mov	r0, r7
 317 0024 FFF7FEFF 		bl	vexMotorGet
 318              	.LVL34:
 319 0028 8046     		mov	r8, r0
 320 002a 3846     		mov	r0, r7
 321 002c FFF7FEFF 		bl	vexMotorDirectionGet
 322              	.LVL35:
 323 0030 4146     		mov	r1, r8
 324 0032 0246     		mov	r2, r0
 325 0034 28B2     		sxth	r0, r5
 326 0036 FFF7FEFF 		bl	vexSpiSetMotor
 327              	.LVL36:
 328              		.loc 1 469 0 discriminator 3
 329 003a 082C     		cmp	r4, #8
 330 003c B5B2     		uxth	r5, r6
 331 003e ECD1     		bne	.L39
 332              		.loc 1 473 0
 333 0040 FFF7FEFF 		bl	vexSpiSend
 334              	.LVL37:
 335              		.loc 1 477 0
 336 0044 E5E7     		b	.L40
 337              	.L44:
 338 0046 00BF     		.align	2
 339              	.L43:
 340 0048 00000000 		.word	rlist
 341 004c 08000000 		.word	.LC1
 342              		.cfi_endproc
ARM GAS  /var/folders/vt/qg0v_q5n5k99pnp_yg24c7s80000gn/T//ccOVZxDV.s 			page 7


 343              	.LFE72:
 344              		.size	vexCortexSystemTask, .-vexCortexSystemTask
 345              		.section	.text.vexTaskRegisterPersistant,"ax",%progbits
 346              		.align	2
 347              		.p2align 4,,15
 348              		.global	vexTaskRegisterPersistant
 349              		.thumb
 350              		.thumb_func
 351              		.type	vexTaskRegisterPersistant, %function
 352              	vexTaskRegisterPersistant:
 353              	.LFB64:
 354              		.loc 1 129 0
 355              		.cfi_startproc
 356              		@ args = 0, pretend = 0, frame = 0
 357              		@ frame_needed = 0, uses_anonymous_args = 0
 358              		@ link register save eliminated.
 359              	.LVL38:
 360              		.loc 1 133 0
 361 0000 0023     		movs	r3, #0
 362 0002 1A46     		mov	r2, r3
 363              		.loc 1 129 0
 364 0004 F0B4     		push	{r4, r5, r6, r7}
 365              		.cfi_def_cfa_offset 16
 366              		.cfi_offset 4, -16
 367              		.cfi_offset 5, -12
 368              		.cfi_offset 6, -8
 369              		.cfi_offset 7, -4
 370              		.loc 1 129 0
 371 0006 0E46     		mov	r6, r1
 372              		.loc 1 133 0
 373 0008 1549     		ldr	r1, .L56
 374              	.LVL39:
 375 000a 164C     		ldr	r4, .L56+4
 376 000c 8D69     		ldr	r5, [r1, #24]
 377 000e A861     		str	r0, [r5, #24]
 378              	.LVL40:
 379              	.L48:
 380              		.loc 1 139 0
 381 0010 E158     		ldr	r1, [r4, r3]
 382 0012 1448     		ldr	r0, .L56+4
 383 0014 8D42     		cmp	r5, r1
 384 0016 03F11803 		add	r3, r3, #24
 385 001a 0DD0     		beq	.L54
 386 001c 0132     		adds	r2, r2, #1
 387              	.LVL41:
 388              		.loc 1 136 0 discriminator 2
 389 001e 142A     		cmp	r2, #20
 390 0020 F6D1     		bne	.L48
 391 0022 0022     		movs	r2, #0
 392 0024 1346     		mov	r3, r2
 393              	.L50:
 394              	.LVL42:
 395              		.loc 1 150 0
 396 0026 A158     		ldr	r1, [r4, r2]
 397 0028 0E4F     		ldr	r7, .L56+4
 398 002a 1832     		adds	r2, r2, #24
 399 002c 59B1     		cbz	r1, .L55
ARM GAS  /var/folders/vt/qg0v_q5n5k99pnp_yg24c7s80000gn/T//ccOVZxDV.s 			page 8


 400 002e 0133     		adds	r3, r3, #1
 401              	.LVL43:
 402              		.loc 1 148 0 discriminator 2
 403 0030 142B     		cmp	r3, #20
 404 0032 F8D1     		bne	.L50
 405              		.loc 1 158 0
 406 0034 F0BC     		pop	{r4, r5, r6, r7}
 407              		.cfi_remember_state
 408              		.cfi_restore 7
 409              		.cfi_restore 6
 410              		.cfi_restore 5
 411              		.cfi_restore 4
 412              		.cfi_def_cfa_offset 0
 413              	.LVL44:
 414 0036 7047     		bx	lr
 415              	.LVL45:
 416              	.L54:
 417              		.cfi_restore_state
 418              		.loc 1 142 0
 419 0038 02EB4202 		add	r2, r2, r2, lsl #1
 420              	.LVL46:
 421 003c 00EBC202 		add	r2, r0, r2, lsl #3
 422 0040 1675     		strb	r6, [r2, #20]
 423              		.loc 1 158 0
 424 0042 F0BC     		pop	{r4, r5, r6, r7}
 425              		.cfi_remember_state
 426              		.cfi_restore 4
 427              		.cfi_restore 5
 428              		.cfi_restore 6
 429              		.cfi_restore 7
 430              		.cfi_def_cfa_offset 0
 431              	.LVL47:
 432 0044 7047     		bx	lr
 433              	.LVL48:
 434              	.L55:
 435              		.cfi_restore_state
 436              		.loc 1 152 0
 437 0046 03EB4303 		add	r3, r3, r3, lsl #1
 438              	.LVL49:
 439 004a DB00     		lsls	r3, r3, #3
 440 004c FC18     		adds	r4, r7, r3
 441              		.loc 1 154 0
 442 004e 211D     		adds	r1, r4, #4
 443              		.loc 1 152 0
 444 0050 FD50     		str	r5, [r7, r3]
 445              		.loc 1 153 0
 446 0052 2675     		strb	r6, [r4, #20]
 447              		.loc 1 154 0
 448 0054 0122     		movs	r2, #1
 449 0056 0448     		ldr	r0, .L56+8
 450              		.loc 1 158 0
 451 0058 F0BC     		pop	{r4, r5, r6, r7}
 452              		.cfi_restore 7
 453              		.cfi_restore 6
 454              		.cfi_restore 5
 455              		.cfi_restore 4
 456              		.cfi_def_cfa_offset 0
ARM GAS  /var/folders/vt/qg0v_q5n5k99pnp_yg24c7s80000gn/T//ccOVZxDV.s 			page 9


 457              	.LVL50:
 458              		.loc 1 154 0
 459 005a FFF7FEBF 		b	chEvtRegisterMask
 460              	.LVL51:
 461              	.L57:
 462 005e 00BF     		.align	2
 463              	.L56:
 464 0060 00000000 		.word	rlist
 465 0064 00000000 		.word	.LANCHOR1
 466 0068 00000000 		.word	.LANCHOR0
 467              		.cfi_endproc
 468              	.LFE64:
 469              		.size	vexTaskRegisterPersistant, .-vexTaskRegisterPersistant
 470              		.section	.text.vexTaskRegister,"ax",%progbits
 471              		.align	2
 472              		.p2align 4,,15
 473              		.global	vexTaskRegister
 474              		.thumb
 475              		.thumb_func
 476              		.type	vexTaskRegister, %function
 477              	vexTaskRegister:
 478              	.LFB63:
 479              		.loc 1 117 0
 480              		.cfi_startproc
 481              		@ args = 0, pretend = 0, frame = 0
 482              		@ frame_needed = 0, uses_anonymous_args = 0
 483              		@ link register save eliminated.
 484              	.LVL52:
 485              		.loc 1 118 0
 486 0000 0021     		movs	r1, #0
 487 0002 FFF7FEBF 		b	vexTaskRegisterPersistant
 488              	.LVL53:
 489              		.cfi_endproc
 490              	.LFE63:
 491              		.size	vexTaskRegister, .-vexTaskRegister
 492 0006 00BF     		.section	.text.vexTaskIsRegistered,"ax",%progbits
 493              		.align	2
 494              		.p2align 4,,15
 495              		.global	vexTaskIsRegistered
 496              		.thumb
 497              		.thumb_func
 498              		.type	vexTaskIsRegistered, %function
 499              	vexTaskIsRegistered:
 500              	.LFB65:
 501              		.loc 1 168 0
 502              		.cfi_startproc
 503              		@ args = 0, pretend = 0, frame = 0
 504              		@ frame_needed = 0, uses_anonymous_args = 0
 505              		@ link register save eliminated.
 506              	.LVL54:
 507 0000 0649     		ldr	r1, .L64
 508              		.loc 1 168 0
 509 0002 0023     		movs	r3, #0
 510              	.LVL55:
 511              	.L61:
 512              		.loc 1 175 0
 513 0004 CA58     		ldr	r2, [r1, r3]
ARM GAS  /var/folders/vt/qg0v_q5n5k99pnp_yg24c7s80000gn/T//ccOVZxDV.s 			page 10


 514 0006 1833     		adds	r3, r3, #24
 515 0008 8242     		cmp	r2, r0
 516 000a 04D0     		beq	.L62
 517              		.loc 1 172 0 discriminator 2
 518 000c B3F5F07F 		cmp	r3, #480
 519 0010 F8D1     		bne	.L61
 520              		.loc 1 170 0
 521 0012 0020     		movs	r0, #0
 522              	.LVL56:
 523 0014 7047     		bx	lr
 524              	.LVL57:
 525              	.L62:
 526              		.loc 1 177 0
 527 0016 0120     		movs	r0, #1
 528              	.LVL58:
 529              		.loc 1 182 0
 530 0018 7047     		bx	lr
 531              	.L65:
 532 001a 00BF     		.align	2
 533              	.L64:
 534 001c 00000000 		.word	.LANCHOR1
 535              		.cfi_endproc
 536              	.LFE65:
 537              		.size	vexTaskIsRegistered, .-vexTaskIsRegistered
 538              		.section	.text.vexTaskPersistentGet,"ax",%progbits
 539              		.align	2
 540              		.p2align 4,,15
 541              		.global	vexTaskPersistentGet
 542              		.thumb
 543              		.thumb_func
 544              		.type	vexTaskPersistentGet, %function
 545              	vexTaskPersistentGet:
 546              	.LFB66:
 547              		.loc 1 192 0
 548              		.cfi_startproc
 549              		@ args = 0, pretend = 0, frame = 0
 550              		@ frame_needed = 0, uses_anonymous_args = 0
 551              		@ link register save eliminated.
 552              	.LVL59:
 553 0000 0023     		movs	r3, #0
 554 0002 1A46     		mov	r2, r3
 555 0004 30B4     		push	{r4, r5}
 556              		.cfi_def_cfa_offset 8
 557              		.cfi_offset 4, -8
 558              		.cfi_offset 5, -4
 559 0006 0A4D     		ldr	r5, .L73
 560              	.LVL60:
 561              	.L69:
 562              		.loc 1 199 0
 563 0008 E958     		ldr	r1, [r5, r3]
 564 000a 094C     		ldr	r4, .L73
 565 000c 8142     		cmp	r1, r0
 566 000e 03F11803 		add	r3, r3, #24
 567 0012 05D0     		beq	.L72
 568 0014 0132     		adds	r2, r2, #1
 569              	.LVL61:
 570              		.loc 1 196 0 discriminator 2
ARM GAS  /var/folders/vt/qg0v_q5n5k99pnp_yg24c7s80000gn/T//ccOVZxDV.s 			page 11


 571 0016 142A     		cmp	r2, #20
 572 0018 F6D1     		bne	.L69
 573              		.loc 1 194 0
 574 001a 0020     		movs	r0, #0
 575              	.LVL62:
 576              		.loc 1 206 0
 577 001c 30BC     		pop	{r4, r5}
 578              		.cfi_remember_state
 579              		.cfi_restore 5
 580              		.cfi_restore 4
 581              		.cfi_def_cfa_offset 0
 582 001e 7047     		bx	lr
 583              	.LVL63:
 584              	.L72:
 585              		.cfi_restore_state
 586              		.loc 1 201 0
 587 0020 02EB4202 		add	r2, r2, r2, lsl #1
 588              	.LVL64:
 589 0024 04EBC202 		add	r2, r4, r2, lsl #3
 590 0028 107D     		ldrb	r0, [r2, #20]	@ zero_extendqisi2
 591              	.LVL65:
 592              		.loc 1 206 0
 593 002a 30BC     		pop	{r4, r5}
 594              		.cfi_restore 4
 595              		.cfi_restore 5
 596              		.cfi_def_cfa_offset 0
 597 002c 7047     		bx	lr
 598              	.L74:
 599 002e 00BF     		.align	2
 600              	.L73:
 601 0030 00000000 		.word	.LANCHOR1
 602              		.cfi_endproc
 603              	.LFE66:
 604              		.size	vexTaskPersistentGet, .-vexTaskPersistentGet
 605              		.section	.text.vexTaskPersistentSet,"ax",%progbits
 606              		.align	2
 607              		.p2align 4,,15
 608              		.global	vexTaskPersistentSet
 609              		.thumb
 610              		.thumb_func
 611              		.type	vexTaskPersistentSet, %function
 612              	vexTaskPersistentSet:
 613              	.LFB67:
 614              		.loc 1 216 0
 615              		.cfi_startproc
 616              		@ args = 0, pretend = 0, frame = 0
 617              		@ frame_needed = 0, uses_anonymous_args = 0
 618              		@ link register save eliminated.
 619              	.LVL66:
 620 0000 0023     		movs	r3, #0
 621 0002 1A46     		mov	r2, r3
 622 0004 70B4     		push	{r4, r5, r6}
 623              		.cfi_def_cfa_offset 12
 624              		.cfi_offset 4, -12
 625              		.cfi_offset 5, -8
 626              		.cfi_offset 6, -4
 627 0006 094E     		ldr	r6, .L82
ARM GAS  /var/folders/vt/qg0v_q5n5k99pnp_yg24c7s80000gn/T//ccOVZxDV.s 			page 12


 628              	.LVL67:
 629              	.L78:
 630              		.loc 1 222 0
 631 0008 F458     		ldr	r4, [r6, r3]
 632 000a 084D     		ldr	r5, .L82
 633 000c 8442     		cmp	r4, r0
 634 000e 03F11803 		add	r3, r3, #24
 635 0012 04D0     		beq	.L81
 636 0014 0132     		adds	r2, r2, #1
 637              	.LVL68:
 638              		.loc 1 219 0 discriminator 2
 639 0016 142A     		cmp	r2, #20
 640 0018 F6D1     		bne	.L78
 641              		.loc 1 228 0
 642 001a 70BC     		pop	{r4, r5, r6}
 643              		.cfi_remember_state
 644              		.cfi_restore 6
 645              		.cfi_restore 5
 646              		.cfi_restore 4
 647              		.cfi_def_cfa_offset 0
 648 001c 7047     		bx	lr
 649              	.LVL69:
 650              	.L81:
 651              		.cfi_restore_state
 652              		.loc 1 224 0
 653 001e 02EB4202 		add	r2, r2, r2, lsl #1
 654              	.LVL70:
 655 0022 05EBC202 		add	r2, r5, r2, lsl #3
 656 0026 1175     		strb	r1, [r2, #20]
 657              		.loc 1 228 0
 658 0028 70BC     		pop	{r4, r5, r6}
 659              		.cfi_restore 4
 660              		.cfi_restore 5
 661              		.cfi_restore 6
 662              		.cfi_def_cfa_offset 0
 663 002a 7047     		bx	lr
 664              	.L83:
 665              		.align	2
 666              	.L82:
 667 002c 00000000 		.word	.LANCHOR1
 668              		.cfi_endproc
 669              	.LFE67:
 670              		.size	vexTaskPersistentSet, .-vexTaskPersistentSet
 671              		.section	.text.vexTaskDebug,"ax",%progbits
 672              		.align	2
 673              		.p2align 4,,15
 674              		.global	vexTaskDebug
 675              		.thumb
 676              		.thumb_func
 677              		.type	vexTaskDebug, %function
 678              	vexTaskDebug:
 679              	.LFB68:
 680              		.loc 1 239 0
 681              		.cfi_startproc
 682              		@ args = 0, pretend = 0, frame = 0
 683              		@ frame_needed = 0, uses_anonymous_args = 0
 684              	.LVL71:
ARM GAS  /var/folders/vt/qg0v_q5n5k99pnp_yg24c7s80000gn/T//ccOVZxDV.s 			page 13


 685 0000 2DE9F041 		push	{r4, r5, r6, r7, r8, lr}
 686              		.cfi_def_cfa_offset 24
 687              		.cfi_offset 4, -24
 688              		.cfi_offset 5, -20
 689              		.cfi_offset 6, -16
 690              		.cfi_offset 7, -12
 691              		.cfi_offset 8, -8
 692              		.cfi_offset 14, -4
 693 0004 124C     		ldr	r4, .L96
 694 0006 82B0     		sub	sp, sp, #8
 695              		.cfi_def_cfa_offset 32
 696              		.loc 1 239 0
 697 0008 0746     		mov	r7, r0
 698 000a 0026     		movs	r6, #0
 699 000c 04F5F078 		add	r8, r4, #480
 700 0010 0FE0     		b	.L88
 701              	.LVL72:
 702              	.L95:
 703              		.loc 1 252 0
 704 0012 3846     		mov	r0, r7
 705 0014 FFF7FEFF 		bl	vex_chprintf
 706              	.LVL73:
 707              	.L87:
 708              		.loc 1 256 0
 709 0018 227D     		ldrb	r2, [r4, #20]	@ zero_extendqisi2
 710 001a 2B46     		mov	r3, r5
 711 001c 0092     		str	r2, [sp]
 712 001e 0D49     		ldr	r1, .L96+4
 713 0020 3246     		mov	r2, r6
 714 0022 3846     		mov	r0, r7
 715 0024 FFF7FEFF 		bl	vex_chprintf
 716              	.LVL74:
 717              	.L85:
 718 0028 1834     		adds	r4, r4, #24
 719              		.loc 1 246 0 discriminator 2
 720 002a 4445     		cmp	r4, r8
 721 002c 06F10106 		add	r6, r6, #1
 722              	.LVL75:
 723 0030 0BD0     		beq	.L94
 724              	.LVL76:
 725              	.L88:
 726              		.loc 1 248 0
 727 0032 2568     		ldr	r5, [r4]
 728              	.LVL77:
 729              		.loc 1 252 0
 730 0034 0849     		ldr	r1, .L96+8
 731              		.loc 1 249 0
 732 0036 002D     		cmp	r5, #0
 733 0038 F6D0     		beq	.L85
 734              		.loc 1 251 0
 735 003a AA69     		ldr	r2, [r5, #24]
 736 003c 002A     		cmp	r2, #0
 737 003e E8D1     		bne	.L95
 738              		.loc 1 254 0
 739 0040 0649     		ldr	r1, .L96+12
 740 0042 3846     		mov	r0, r7
 741 0044 FFF7FEFF 		bl	vex_chprintf
ARM GAS  /var/folders/vt/qg0v_q5n5k99pnp_yg24c7s80000gn/T//ccOVZxDV.s 			page 14


 742              	.LVL78:
 743 0048 E6E7     		b	.L87
 744              	.LVL79:
 745              	.L94:
 746              		.loc 1 259 0
 747 004a 02B0     		add	sp, sp, #8
 748              		.cfi_def_cfa_offset 24
 749              		@ sp needed
 750 004c BDE8F081 		pop	{r4, r5, r6, r7, r8, pc}
 751              	.LVL80:
 752              	.L97:
 753              		.align	2
 754              	.L96:
 755 0050 00000000 		.word	.LANCHOR1
 756 0054 2C000000 		.word	.LC4
 757 0058 10000000 		.word	.LC2
 758 005c 18000000 		.word	.LC3
 759              		.cfi_endproc
 760              	.LFE68:
 761              		.size	vexTaskDebug, .-vexTaskDebug
 762              		.section	.text.vexTaskEmergencyStop,"ax",%progbits
 763              		.align	2
 764              		.p2align 4,,15
 765              		.global	vexTaskEmergencyStop
 766              		.thumb
 767              		.thumb_func
 768              		.type	vexTaskEmergencyStop, %function
 769              	vexTaskEmergencyStop:
 770              	.LFB69:
 771              		.loc 1 270 0
 772              		.cfi_startproc
 773              		@ args = 0, pretend = 0, frame = 0
 774              		@ frame_needed = 0, uses_anonymous_args = 0
 775              		@ link register save eliminated.
 776              	.LVL81:
 777 0000 054B     		ldr	r3, .L101
 778              		.loc 1 274 0
 779 0002 0021     		movs	r1, #0
 780 0004 03F5F072 		add	r2, r3, #480
 781              	.LVL82:
 782              	.L99:
 783              		.loc 1 274 0 is_stmt 0 discriminator 3
 784 0008 1975     		strb	r1, [r3, #20]
 785 000a 1833     		adds	r3, r3, #24
 786              		.loc 1 273 0 is_stmt 1 discriminator 3
 787 000c 9342     		cmp	r3, r2
 788 000e FBD1     		bne	.L99
 789              		.loc 1 276 0
 790 0010 024B     		ldr	r3, .L101+4
 791 0012 0122     		movs	r2, #1
 792 0014 1A70     		strb	r2, [r3]
 793 0016 7047     		bx	lr
 794              	.L102:
 795              		.align	2
 796              	.L101:
 797 0018 00000000 		.word	.LANCHOR1
 798 001c 00000000 		.word	.LANCHOR3
ARM GAS  /var/folders/vt/qg0v_q5n5k99pnp_yg24c7s80000gn/T//ccOVZxDV.s 			page 15


 799              		.cfi_endproc
 800              	.LFE69:
 801              		.size	vexTaskEmergencyStop, .-vexTaskEmergencyStop
 802              		.section	.text.vexSleep,"ax",%progbits
 803              		.align	2
 804              		.p2align 4,,15
 805              		.global	vexSleep
 806              		.thumb
 807              		.thumb_func
 808              		.type	vexSleep, %function
 809              	vexSleep:
 810              	.LFB70:
 811              		.loc 1 290 0
 812              		.cfi_startproc
 813              		@ args = 0, pretend = 0, frame = 0
 814              		@ frame_needed = 0, uses_anonymous_args = 0
 815              	.LVL83:
 816              		.loc 1 291 0
 817 0000 4FF47A73 		mov	r3, #1000
 818 0004 03FB00F0 		mul	r0, r3, r0
 819              	.LVL84:
 820 0008 2649     		ldr	r1, .L127
 821 000a 0138     		subs	r0, r0, #1
 822 000c A1FB0031 		umull	r3, r1, r1, r0
 823 0010 8909     		lsrs	r1, r1, #6
 824              		.loc 1 290 0
 825 0012 2DE9F041 		push	{r4, r5, r6, r7, r8, lr}
 826              		.cfi_def_cfa_offset 24
 827              		.cfi_offset 4, -24
 828              		.cfi_offset 5, -20
 829              		.cfi_offset 6, -16
 830              		.cfi_offset 7, -12
 831              		.cfi_offset 8, -8
 832              		.cfi_offset 14, -4
 833              		.loc 1 291 0
 834 0016 0131     		adds	r1, r1, #1
 835 0018 4FF0FF30 		mov	r0, #-1
 836 001c FFF7FEFF 		bl	chEvtWaitAnyTimeout
 837              	.LVL85:
 838 0020 214E     		ldr	r6, .L127+4
 839 0022 B169     		ldr	r1, [r6, #24]
 840 0024 10B9     		cbnz	r0, .L106
 841              		.loc 1 291 0 is_stmt 0 discriminator 1
 842 0026 4B7F     		ldrb	r3, [r1, #29]	@ zero_extendqisi2
 843 0028 5807     		lsls	r0, r3, #29
 844 002a 39D5     		bpl	.L125
 845              	.L106:
 846              		.loc 1 290 0 is_stmt 1
 847 002c 0023     		movs	r3, #0
 848 002e 1C46     		mov	r4, r3
 849 0030 1E4D     		ldr	r5, .L127+8
 850              	.L105:
 851              	.LVL86:
 852              	.LBB4:
 853              		.loc 1 299 0
 854 0032 EA58     		ldr	r2, [r5, r3]
 855 0034 1D48     		ldr	r0, .L127+8
ARM GAS  /var/folders/vt/qg0v_q5n5k99pnp_yg24c7s80000gn/T//ccOVZxDV.s 			page 16


 856 0036 8A42     		cmp	r2, r1
 857 0038 03F11803 		add	r3, r3, #24
 858 003c 07D0     		beq	.L126
 859 003e 0134     		adds	r4, r4, #1
 860              	.LVL87:
 861              		.loc 1 297 0 discriminator 2
 862 0040 142C     		cmp	r4, #20
 863 0042 F6D1     		bne	.L105
 864              	.L112:
 865              		.loc 1 323 0
 866 0044 0020     		movs	r0, #0
 867              	.LBE4:
 868              		.loc 1 325 0
 869 0046 BDE8F041 		pop	{r4, r5, r6, r7, r8, lr}
 870              		.cfi_remember_state
 871              		.cfi_restore 14
 872              		.cfi_restore 8
 873              		.cfi_restore 7
 874              		.cfi_restore 6
 875              		.cfi_restore 5
 876              		.cfi_restore 4
 877              		.cfi_def_cfa_offset 0
 878              	.LBB5:
 879              		.loc 1 323 0
 880 004a FFF7FEBF 		b	chThdExit
 881              	.LVL88:
 882              	.L126:
 883              		.cfi_restore_state
 884              		.loc 1 302 0
 885 004e 4FEA4408 		lsl	r8, r4, #1
 886 0052 08EB0403 		add	r3, r8, r4
 887 0056 00EBC300 		add	r0, r0, r3, lsl #3
 888 005a 037D     		ldrb	r3, [r0, #20]	@ zero_extendqisi2
 889 005c 13B1     		cbz	r3, .L109
 890              		.loc 1 305 0
 891 005e 4B7F     		ldrb	r3, [r1, #29]	@ zero_extendqisi2
 892 0060 5A07     		lsls	r2, r3, #29
 893 0062 1BD5     		bpl	.L103
 894              	.L109:
 895              		.loc 1 309 0
 896 0064 08EB0407 		add	r7, r8, r4
 897 0068 FF00     		lsls	r7, r7, #3
 898 006a E919     		adds	r1, r5, r7
 899 006c 0431     		adds	r1, r1, #4
 900 006e 1048     		ldr	r0, .L127+12
 901 0070 FFF7FEFF 		bl	chEvtUnregister
 902              	.LVL89:
 903              		.loc 1 312 0
 904 0074 0F4B     		ldr	r3, .L127+16
 905              		.loc 1 309 0
 906 0076 0D4A     		ldr	r2, .L127+8
 907              		.loc 1 312 0
 908 0078 13B1     		cbz	r3, .L110
 909              		.loc 1 313 0
 910 007a D059     		ldr	r0, [r2, r7]
 911 007c FFF7FEFF 		bl	CleanupTask
 912              	.LVL90:
ARM GAS  /var/folders/vt/qg0v_q5n5k99pnp_yg24c7s80000gn/T//ccOVZxDV.s 			page 17


 913              	.L110:
 914              		.loc 1 316 0
 915 0080 B369     		ldr	r3, [r6, #24]
 916 0082 5B7F     		ldrb	r3, [r3, #29]	@ zero_extendqisi2
 917 0084 5B07     		lsls	r3, r3, #29
 918 0086 DDD5     		bpl	.L112
 919              		.loc 1 317 0
 920 0088 08EB0403 		add	r3, r8, r4
 921 008c DB00     		lsls	r3, r3, #3
 922 008e 0022     		movs	r2, #0
 923 0090 EA50     		str	r2, [r5, r3]
 924              		.loc 1 323 0
 925 0092 0020     		movs	r0, #0
 926              	.LBE5:
 927              		.loc 1 325 0
 928 0094 BDE8F041 		pop	{r4, r5, r6, r7, r8, lr}
 929              		.cfi_remember_state
 930              		.cfi_restore 4
 931              		.cfi_restore 5
 932              		.cfi_restore 6
 933              		.cfi_restore 7
 934              		.cfi_restore 8
 935              		.cfi_restore 14
 936              		.cfi_def_cfa_offset 0
 937              	.LVL91:
 938              	.LBB6:
 939              		.loc 1 323 0
 940 0098 FFF7FEBF 		b	chThdExit
 941              	.LVL92:
 942              	.L103:
 943              		.cfi_restore_state
 944 009c BDE8F081 		pop	{r4, r5, r6, r7, r8, pc}
 945              	.LVL93:
 946              	.L125:
 947              	.LBE6:
 948 00a0 BDE8F081 		pop	{r4, r5, r6, r7, r8, pc}
 949              	.L128:
 950              		.align	2
 951              	.L127:
 952 00a4 D34D6210 		.word	274877907
 953 00a8 00000000 		.word	rlist
 954 00ac 00000000 		.word	.LANCHOR1
 955 00b0 00000000 		.word	.LANCHOR0
 956 00b4 00000000 		.word	CleanupTask
 957              		.cfi_endproc
 958              	.LFE70:
 959              		.size	vexSleep, .-vexSleep
 960              		.section	.text.vexCortexInit,"ax",%progbits
 961              		.align	2
 962              		.p2align 4,,15
 963              		.global	vexCortexInit
 964              		.thumb
 965              		.thumb_func
 966              		.type	vexCortexInit, %function
 967              	vexCortexInit:
 968              	.LFB73:
 969              		.loc 1 488 0
ARM GAS  /var/folders/vt/qg0v_q5n5k99pnp_yg24c7s80000gn/T//ccOVZxDV.s 			page 18


 970              		.cfi_startproc
 971              		@ args = 0, pretend = 0, frame = 0
 972              		@ frame_needed = 0, uses_anonymous_args = 0
 973 0000 10B5     		push	{r4, lr}
 974              		.cfi_def_cfa_offset 8
 975              		.cfi_offset 4, -8
 976              		.cfi_offset 14, -4
 977 0002 82B0     		sub	sp, sp, #8
 978              		.cfi_def_cfa_offset 16
 979              		.loc 1 490 0
 980 0004 FFF7FEFF 		bl	vexSpiInit
 981              	.LVL94:
 982              		.loc 1 493 0
 983 0008 FFF7FEFF 		bl	vexMotorInit
 984              	.LVL95:
 985              		.loc 1 497 0
 986 000c FFF7FEFF 		bl	vexAdcInit
 987              	.LVL96:
 988              		.loc 1 501 0
 989 0010 FFF7FEFF 		bl	vexTest
 990              	.LVL97:
 991              		.loc 1 505 0
 992 0014 2749     		ldr	r1, .L135
 993 0016 2848     		ldr	r0, .L135+4
 994 0018 FFF7FEFF 		bl	sdStart
 995              	.LVL98:
 996              		.loc 1 506 0
 997 001c 2649     		ldr	r1, .L135+4
 998 001e 0020     		movs	r0, #0
 999 0020 FFF7FEFF 		bl	vexLcdInit
 1000              	.LVL99:
 1001              		.loc 1 507 0
 1002 0024 0021     		movs	r1, #0
 1003 0026 254B     		ldr	r3, .L135+8
 1004 0028 0846     		mov	r0, r1
 1005 002a 254A     		ldr	r2, .L135+12
 1006 002c FFF7FEFF 		bl	vexLcdPrintf
 1007              	.LVL100:
 1008              		.loc 1 508 0
 1009 0030 244A     		ldr	r2, .L135+16
 1010 0032 0121     		movs	r1, #1
 1011 0034 0020     		movs	r0, #0
 1012 0036 FFF7FEFF 		bl	vexLcdPrintf
 1013              	.LVL101:
 1014              		.loc 1 513 0
 1015 003a 1E49     		ldr	r1, .L135
 1016 003c 2248     		ldr	r0, .L135+20
 1017 003e FFF7FEFF 		bl	sdStart
 1018              	.LVL102:
 1019              		.loc 1 514 0
 1020 0042 2149     		ldr	r1, .L135+20
 1021 0044 0120     		movs	r0, #1
 1022 0046 FFF7FEFF 		bl	vexLcdInit
 1023              	.LVL103:
 1024              		.loc 1 515 0
 1025 004a 1C4B     		ldr	r3, .L135+8
 1026 004c 1C4A     		ldr	r2, .L135+12
ARM GAS  /var/folders/vt/qg0v_q5n5k99pnp_yg24c7s80000gn/T//ccOVZxDV.s 			page 19


 1027 004e 0021     		movs	r1, #0
 1028 0050 0120     		movs	r0, #1
 1029 0052 FFF7FEFF 		bl	vexLcdPrintf
 1030              	.LVL104:
 1031              		.loc 1 516 0
 1032 0056 0121     		movs	r1, #1
 1033 0058 0846     		mov	r0, r1
 1034 005a 1C4A     		ldr	r2, .L135+24
 1035 005c FFF7FEFF 		bl	vexLcdPrintf
 1036              	.LVL105:
 1037              		.loc 1 520 0
 1038 0060 FFF7FEFF 		bl	vexEncoderInit
 1039              	.LVL106:
 1040              		.loc 1 523 0
 1041 0064 FFF7FEFF 		bl	i2cInit
 1042              	.LVL107:
 1043              		.loc 1 525 0
 1044 0068 1949     		ldr	r1, .L135+28
 1045 006a 1A48     		ldr	r0, .L135+32
 1046 006c FFF7FEFF 		bl	vexImeInit
 1047              	.LVL108:
 1048              		.loc 1 528 0
 1049 0070 194B     		ldr	r3, .L135+36
 1050 0072 0BB1     		cbz	r3, .L130
 1051              		.loc 1 529 0
 1052 0074 FFF7FEFF 		bl	vexUserSetup
 1053              	.LVL109:
 1054              	.L130:
 1055              		.loc 1 547 0
 1056 0078 0024     		movs	r4, #0
 1057              		.loc 1 532 0
 1058 007a FFF7FEFF 		bl	vexExtIrqInit
 1059              	.LVL110:
 1060              		.loc 1 534 0
 1061 007e FFF7FEFF 		bl	vexEncoderStartAll
 1062              	.LVL111:
 1063              		.loc 1 536 0
 1064 0082 FFF7FEFF 		bl	vexSonarStartAll
 1065              	.LVL112:
 1066              		.loc 1 537 0
 1067 0086 FFF7FEFF 		bl	vexSonarRun
 1068              	.LVL113:
 1069              		.loc 1 540 0
 1070 008a FFF7FEFF 		bl	vexDigitalIntrRun
 1071              	.LVL114:
 1072              		.loc 1 547 0
 1073 008e 0094     		str	r4, [sp]
 1074 0090 124B     		ldr	r3, .L135+40
 1075 0092 4A22     		movs	r2, #74
 1076 0094 4FF4C071 		mov	r1, #384
 1077 0098 1148     		ldr	r0, .L135+44
 1078 009a FFF7FEFF 		bl	chThdCreateStatic
 1079              	.LVL115:
 1080              		.loc 1 549 0
 1081 009e 0094     		str	r4, [sp]
 1082 00a0 104B     		ldr	r3, .L135+48
 1083 00a2 4822     		movs	r2, #72
ARM GAS  /var/folders/vt/qg0v_q5n5k99pnp_yg24c7s80000gn/T//ccOVZxDV.s 			page 20


 1084 00a4 4FF42071 		mov	r1, #640
 1085 00a8 0F48     		ldr	r0, .L135+52
 1086 00aa FFF7FEFF 		bl	chThdCreateStatic
 1087              	.LVL116:
 1088              		.loc 1 550 0
 1089 00ae 02B0     		add	sp, sp, #8
 1090              		.cfi_def_cfa_offset 8
 1091              		@ sp needed
 1092 00b0 10BD     		pop	{r4, pc}
 1093              	.L136:
 1094 00b2 00BF     		.align	2
 1095              	.L135:
 1096 00b4 00000000 		.word	.LANCHOR4
 1097 00b8 00000000 		.word	SD2
 1098 00bc 3C000000 		.word	.LC5
 1099 00c0 44000000 		.word	.LC6
 1100 00c4 50000000 		.word	.LC7
 1101 00c8 00000000 		.word	SD3
 1102 00cc 60000000 		.word	.LC8
 1103 00d0 00000000 		.word	SD1
 1104 00d4 00000000 		.word	I2CD1
 1105 00d8 00000000 		.word	vexUserSetup
 1106 00dc 00000000 		.word	vexCortexSystemTask
 1107 00e0 00000000 		.word	.LANCHOR5
 1108 00e4 00000000 		.word	vexCortexMonitorTask
 1109 00e8 00000000 		.word	.LANCHOR6
 1110              		.cfi_endproc
 1111              	.LFE73:
 1112              		.size	vexCortexInit, .-vexCortexInit
 1113              		.section	.text.vexConsoleInit,"ax",%progbits
 1114              		.align	2
 1115              		.p2align 4,,15
 1116              		.global	vexConsoleInit
 1117              		.thumb
 1118              		.thumb_func
 1119              		.type	vexConsoleInit, %function
 1120              	vexConsoleInit:
 1121              	.LFB74:
 1122              		.loc 1 558 0
 1123              		.cfi_startproc
 1124              		@ args = 0, pretend = 0, frame = 0
 1125              		@ frame_needed = 0, uses_anonymous_args = 0
 1126              		@ link register save eliminated.
 1127              		.loc 1 560 0
 1128 0000 0149     		ldr	r1, .L138
 1129 0002 0248     		ldr	r0, .L138+4
 1130 0004 FFF7FEBF 		b	sdStart
 1131              	.LVL117:
 1132              	.L139:
 1133              		.align	2
 1134              	.L138:
 1135 0008 00000000 		.word	.LANCHOR7
 1136 000c 00000000 		.word	SD1
 1137              		.cfi_endproc
 1138              	.LFE74:
 1139              		.size	vexConsoleInit, .-vexConsoleInit
 1140              		.section	.text.vexWatchdogInit,"ax",%progbits
ARM GAS  /var/folders/vt/qg0v_q5n5k99pnp_yg24c7s80000gn/T//ccOVZxDV.s 			page 21


 1141              		.align	2
 1142              		.p2align 4,,15
 1143              		.global	vexWatchdogInit
 1144              		.thumb
 1145              		.thumb_func
 1146              		.type	vexWatchdogInit, %function
 1147              	vexWatchdogInit:
 1148              	.LFB75:
 1149              		.loc 1 592 0
 1150              		.cfi_startproc
 1151              		@ args = 0, pretend = 0, frame = 0
 1152              		@ frame_needed = 0, uses_anonymous_args = 0
 1153              		@ link register save eliminated.
 1154              	.LVL118:
 1155 0000 30B4     		push	{r4, r5}
 1156              		.cfi_def_cfa_offset 8
 1157              		.cfi_offset 4, -8
 1158              		.cfi_offset 5, -4
 1159              		.loc 1 600 0
 1160 0002 40F27120 		movw	r0, #625
 1161              		.loc 1 595 0
 1162 0006 45F25555 		movw	r5, #21845
 1163              		.loc 1 602 0
 1164 000a 4AF6AA21 		movw	r1, #43690
 1165              		.loc 1 604 0
 1166 000e 4CF6CC42 		movw	r2, #52428
 1167              		.loc 1 595 0
 1168 0012 044B     		ldr	r3, .L142
 1169              		.loc 1 598 0
 1170 0014 0424     		movs	r4, #4
 1171              		.loc 1 595 0
 1172 0016 1D60     		str	r5, [r3]
 1173              		.loc 1 598 0
 1174 0018 5C60     		str	r4, [r3, #4]
 1175              		.loc 1 600 0
 1176 001a 9860     		str	r0, [r3, #8]
 1177              		.loc 1 605 0
 1178 001c 30BC     		pop	{r4, r5}
 1179              		.cfi_restore 5
 1180              		.cfi_restore 4
 1181              		.cfi_def_cfa_offset 0
 1182              		.loc 1 602 0
 1183 001e 1960     		str	r1, [r3]
 1184              		.loc 1 604 0
 1185 0020 1A60     		str	r2, [r3]
 1186              		.loc 1 605 0
 1187 0022 7047     		bx	lr
 1188              	.L143:
 1189              		.align	2
 1190              	.L142:
 1191 0024 00300040 		.word	1073754112
 1192              		.cfi_endproc
 1193              	.LFE75:
 1194              		.size	vexWatchdogInit, .-vexWatchdogInit
 1195              		.section	.text.vexWatchdogReload,"ax",%progbits
 1196              		.align	2
 1197              		.p2align 4,,15
ARM GAS  /var/folders/vt/qg0v_q5n5k99pnp_yg24c7s80000gn/T//ccOVZxDV.s 			page 22


 1198              		.global	vexWatchdogReload
 1199              		.thumb
 1200              		.thumb_func
 1201              		.type	vexWatchdogReload, %function
 1202              	vexWatchdogReload:
 1203              	.LFB76:
 1204              		.loc 1 613 0
 1205              		.cfi_startproc
 1206              		@ args = 0, pretend = 0, frame = 0
 1207              		@ frame_needed = 0, uses_anonymous_args = 0
 1208              		@ link register save eliminated.
 1209              	.LVL119:
 1210              		.loc 1 617 0
 1211 0000 4AF6AA22 		movw	r2, #43690
 1212 0004 014B     		ldr	r3, .L145
 1213 0006 1A60     		str	r2, [r3]
 1214 0008 7047     		bx	lr
 1215              	.L146:
 1216 000a 00BF     		.align	2
 1217              	.L145:
 1218 000c 00300040 		.word	1073754112
 1219              		.cfi_endproc
 1220              	.LFE76:
 1221              		.size	vexWatchdogReload, .-vexWatchdogReload
 1222              		.section	.text.vexWatchdogResetFlagGet,"ax",%progbits
 1223              		.align	2
 1224              		.p2align 4,,15
 1225              		.global	vexWatchdogResetFlagGet
 1226              		.thumb
 1227              		.thumb_func
 1228              		.type	vexWatchdogResetFlagGet, %function
 1229              	vexWatchdogResetFlagGet:
 1230              	.LFB77:
 1231              		.loc 1 627 0
 1232              		.cfi_startproc
 1233              		@ args = 0, pretend = 0, frame = 0
 1234              		@ frame_needed = 0, uses_anonymous_args = 0
 1235              		@ link register save eliminated.
 1236              	.LVL120:
 1237              		.loc 1 631 0
 1238 0000 024B     		ldr	r3, .L148
 1239 0002 586A     		ldr	r0, [r3, #36]
 1240              		.loc 1 635 0
 1241 0004 C0F34070 		ubfx	r0, r0, #29, #1
 1242 0008 7047     		bx	lr
 1243              	.L149:
 1244 000a 00BF     		.align	2
 1245              	.L148:
 1246 000c 00100240 		.word	1073876992
 1247              		.cfi_endproc
 1248              	.LFE77:
 1249              		.size	vexWatchdogResetFlagGet, .-vexWatchdogResetFlagGet
 1250              		.section	.bss.waVexUserTask,"aw",%nobits
 1251              		.align	3
 1252              		.set	.LANCHOR2,. + 0
 1253              		.type	waVexUserTask, %object
 1254              		.size	waVexUserTask, 688
ARM GAS  /var/folders/vt/qg0v_q5n5k99pnp_yg24c7s80000gn/T//ccOVZxDV.s 			page 23


 1255              	waVexUserTask:
 1256 0000 00000000 		.space	688
 1256      00000000 
 1256      00000000 
 1256      00000000 
 1256      00000000 
 1257              		.section	.data.task_terminate,"aw",%progbits
 1258              		.align	2
 1259              		.set	.LANCHOR0,. + 0
 1260              		.type	task_terminate, %object
 1261              		.size	task_terminate, 4
 1262              	task_terminate:
 1263 0000 00000000 		.word	task_terminate
 1264              		.section	.rodata.lcd_config,"a",%progbits
 1265              		.align	2
 1266              		.set	.LANCHOR4,. + 0
 1267              		.type	lcd_config, %object
 1268              		.size	lcd_config, 12
 1269              	lcd_config:
 1270 0000 004B0000 		.word	19200
 1271 0004 0000     		.short	0
 1272 0006 0000     		.short	0
 1273 0008 0000     		.short	0
 1274 000a 0000     		.space	2
 1275              		.section	.bss.waVexCortexSystemTask,"aw",%nobits
 1276              		.align	3
 1277              		.set	.LANCHOR5,. + 0
 1278              		.type	waVexCortexSystemTask, %object
 1279              		.size	waVexCortexSystemTask, 384
 1280              	waVexCortexSystemTask:
 1281 0000 00000000 		.space	384
 1281      00000000 
 1281      00000000 
 1281      00000000 
 1281      00000000 
 1282              		.section	.rodata.console_config,"a",%progbits
 1283              		.align	2
 1284              		.set	.LANCHOR7,. + 0
 1285              		.type	console_config, %object
 1286              		.size	console_config, 12
 1287              	console_config:
 1288 0000 00840300 		.word	230400
 1289 0004 0000     		.short	0
 1290 0006 0000     		.short	0
 1291 0008 0000     		.short	0
 1292 000a 0000     		.space	2
 1293              		.section	.rodata.str1.4,"aMS",%progbits,1
 1294              		.align	2
 1295              	.LC0:
 1296 0000 6D6F6E69 		.ascii	"monitor\000"
 1296      746F7200 
 1297              	.LC1:
 1298 0008 73797374 		.ascii	"system\000"
 1298      656D00
 1299 000f 00       		.space	1
 1300              	.LC2:
 1301 0010 25313673 		.ascii	"%16s \000"
ARM GAS  /var/folders/vt/qg0v_q5n5k99pnp_yg24c7s80000gn/T//ccOVZxDV.s 			page 24


 1301      2000
 1302 0016 0000     		.space	2
 1303              	.LC3:
 1304 0018 20202020 		.ascii	"                 \000"
 1304      20202020 
 1304      20202020 
 1304      20202020 
 1304      2000
 1305 002a 0000     		.space	2
 1306              	.LC4:
 1307 002c 2532643A 		.ascii	"%2d: %.8X %d\015\012\000"
 1307      20252E38 
 1307      58202564 
 1307      0D0A00
 1308 003b 00       		.space	1
 1309              	.LC5:
 1310 003c 312E302E 		.ascii	"1.0.4\000"
 1310      3400
 1311 0042 0000     		.space	2
 1312              	.LC6:
 1313 0044 436F6E56 		.ascii	"ConVEX V%s\000"
 1313      45582056 
 1313      257300
 1314 004f 00       		.space	1
 1315              	.LC7:
 1316 0050 56455820 		.ascii	"VEX CORTEX LCD1\000"
 1316      434F5254 
 1316      4558204C 
 1316      43443100 
 1317              	.LC8:
 1318 0060 56455820 		.ascii	"VEX CORTEX LCD2\000"
 1318      434F5254 
 1318      4558204C 
 1318      43443200 
 1319              		.section	.bss.myThreads,"aw",%nobits
 1320              		.align	2
 1321              		.set	.LANCHOR1,. + 0
 1322              		.type	myThreads, %object
 1323              		.size	myThreads, 480
 1324              	myThreads:
 1325 0000 00000000 		.space	480
 1325      00000000 
 1325      00000000 
 1325      00000000 
 1325      00000000 
 1326              		.section	.bss.waVexCortexMonitorTask,"aw",%nobits
 1327              		.align	3
 1328              		.set	.LANCHOR6,. + 0
 1329              		.type	waVexCortexMonitorTask, %object
 1330              		.size	waVexCortexMonitorTask, 640
 1331              	waVexCortexMonitorTask:
 1332 0000 00000000 		.space	640
 1332      00000000 
 1332      00000000 
 1332      00000000 
 1332      00000000 
 1333              		.section	.bss.vexKillAll,"aw",%nobits
ARM GAS  /var/folders/vt/qg0v_q5n5k99pnp_yg24c7s80000gn/T//ccOVZxDV.s 			page 25


 1334              		.set	.LANCHOR3,. + 0
 1335              		.type	vexKillAll, %object
 1336              		.size	vexKillAll, 1
 1337              	vexKillAll:
 1338 0000 00       		.space	1
 1339              		.weak	vexUserSetup
 1340              		.weak	CleanupTask
 1341              		.weak	vexUserInit
 1342              		.text
 1343              	.Letext0:
 1344              		.file 2 "/usr/local/gcc-arm-none-eabi-5_2-2015q4/lib/gcc/arm-none-eabi/5.2.1/include/stddef.h"
 1345              		.file 3 "/usr/local/gcc-arm-none-eabi-5_2-2015q4/arm-none-eabi/include/machine/_default_types.h"
 1346              		.file 4 "/usr/local/gcc-arm-none-eabi-5_2-2015q4/arm-none-eabi/include/sys/_stdint.h"
 1347              		.file 5 "../../ChibiOS/os/ports/GCC/ARMCMx/chtypes.h"
 1348              		.file 6 "../../ChibiOS/os/kernel/include/chlists.h"
 1349              		.file 7 "../../ChibiOS/os/kernel/include/chthreads.h"
 1350              		.file 8 "../../ChibiOS/os/ports/GCC/ARMCMx/chcore_v7m.h"
 1351              		.file 9 "../../ChibiOS/os/kernel/include/chschd.h"
 1352              		.file 10 "../../ChibiOS/os/kernel/include/chmtx.h"
 1353              		.file 11 "../../ChibiOS/os/kernel/include/chevents.h"
 1354              		.file 12 "../../ChibiOS/os/kernel/include/chqueues.h"
 1355              		.file 13 "../../ChibiOS/os/kernel/include/chstreams.h"
 1356              		.file 14 "../../ChibiOS/os/hal/platforms/STM32F1xx/stm32f10x.h"
 1357              		.file 15 "../../ChibiOS/os/hal/platforms/STM32F1xx/stm32_dma.h"
 1358              		.file 16 "../../ChibiOS/os/hal/include/i2c.h"
 1359              		.file 17 "../../ChibiOS/os/hal/platforms/STM32/I2Cv1/i2c_lld.h"
 1360              		.file 18 "../../ChibiOS/os/hal/include/serial.h"
 1361              		.file 19 "../../ChibiOS/os/hal/platforms/STM32/USARTv1/serial_lld.h"
 1362              		.file 20 "../../convex/convex/cortex/fw/vexcompat.h"
 1363              		.file 21 "../../convex/convex/cortex/fw/vexdigital.h"
 1364              		.file 22 "../../convex/convex/cortex/fw/vexime.h"
 1365              		.file 23 "../../convex/convex/cortex/fw/vexctl.h"
 1366              		.file 24 "../../ChibiOS/os/ports/common/ARMCMx/CMSIS/include/core_cm3.h"
 1367              		.file 25 "../../convex/convex/cortex/fw/vexspi.h"
 1368              		.file 26 "../../convex/convex/cortex/fw/vex.h"
 1369              		.file 27 "../../convex/convex/cortex/fw/vexmotor.h"
 1370              		.file 28 "../../convex/convex/cortex/fw/vexprintf.h"
 1371              		.file 29 "../../convex/convex/cortex/fw/vexanalog.h"
 1372              		.file 30 "../../convex/convex/cortex/fw/vexlcd.h"
 1373              		.file 31 "../../convex/convex/cortex/fw/vexencoder.h"
 1374              		.file 32 "../../convex/convex/cortex/fw/vexsonar.h"