ARM GAS  /var/folders/vt/qg0v_q5n5k99pnp_yg24c7s80000gn/T//cc8PW4di.s 			page 1


   1              		.syntax unified
   2              		.cpu cortex-m3
   3              		.fpu softvfp
   4              		.eabi_attribute 20, 1
   5              		.eabi_attribute 21, 1
   6              		.eabi_attribute 23, 3
   7              		.eabi_attribute 24, 1
   8              		.eabi_attribute 25, 1
   9              		.eabi_attribute 26, 1
  10              		.eabi_attribute 30, 2
  11              		.eabi_attribute 34, 1
  12              		.eabi_attribute 18, 4
  13              		.thumb
  14              		.syntax unified
  15              		.file	"vexime.c"
  16              		.text
  17              	.Ltext0:
  18              		.cfi_sections	.debug_frame
  19              		.section	.text.vexImeGetCount,"ax",%progbits
  20              		.align	2
  21              		.p2align 4,,15
  22              		.global	vexImeGetCount
  23              		.thumb
  24              		.thumb_func
  25              		.type	vexImeGetCount, %function
  26              	vexImeGetCount:
  27              	.LFB63:
  28              		.file 1 "../../convex/convex/cortex/fw/vexime.c"
  29              		.loc 1 85 0
  30              		.cfi_startproc
  31              		@ args = 0, pretend = 0, frame = 0
  32              		@ frame_needed = 0, uses_anonymous_args = 0
  33              		@ link register save eliminated.
  34              	.LVL0:
  35              		.loc 1 86 0
  36 0000 C3B2     		uxtb	r3, r0
  37 0002 072B     		cmp	r3, #7
  38 0004 09D8     		bhi	.L3
  39              	.LVL1:
  40              	.LBB6:
  41              	.LBB7:
  42              		.loc 1 89 0
  43 0006 064B     		ldr	r3, .L6
  44 0008 6C22     		movs	r2, #108
  45 000a 02FB0033 		mla	r3, r2, r0, r3
  46 000e D88B     		ldrh	r0, [r3, #30]
  47              	.LVL2:
  48 0010 20B1     		cbz	r0, .L2
  49              		.loc 1 90 0
  50 0012 5A6E     		ldr	r2, [r3, #100]
  51 0014 986E     		ldr	r0, [r3, #104]
  52 0016 101A     		subs	r0, r2, r0
  53 0018 7047     		bx	lr
  54              	.LVL3:
  55              	.L3:
  56              	.LBE7:
  57              	.LBE6:
ARM GAS  /var/folders/vt/qg0v_q5n5k99pnp_yg24c7s80000gn/T//cc8PW4di.s 			page 2


  58              		.loc 1 87 0
  59 001a 0020     		movs	r0, #0
  60              	.LVL4:
  61              	.L2:
  62              		.loc 1 93 0
  63 001c 7047     		bx	lr
  64              	.L7:
  65 001e 00BF     		.align	2
  66              	.L6:
  67 0020 00000000 		.word	.LANCHOR0
  68              		.cfi_endproc
  69              	.LFE63:
  70              		.size	vexImeGetCount, .-vexImeGetCount
  71              		.section	.text.vexImeSetCount,"ax",%progbits
  72              		.align	2
  73              		.p2align 4,,15
  74              		.global	vexImeSetCount
  75              		.thumb
  76              		.thumb_func
  77              		.type	vexImeSetCount, %function
  78              	vexImeSetCount:
  79              	.LFB64:
  80              		.loc 1 104 0
  81              		.cfi_startproc
  82              		@ args = 0, pretend = 0, frame = 0
  83              		@ frame_needed = 0, uses_anonymous_args = 0
  84              		@ link register save eliminated.
  85              	.LVL5:
  86              		.loc 1 105 0
  87 0000 C3B2     		uxtb	r3, r0
  88 0002 072B     		cmp	r3, #7
  89 0004 08D8     		bhi	.L8
  90              		.loc 1 108 0
  91 0006 054B     		ldr	r3, .L13
  92 0008 6C22     		movs	r2, #108
  93 000a 02FB0030 		mla	r0, r2, r0, r3
  94              	.LVL6:
  95 000e C38B     		ldrh	r3, [r0, #30]
  96 0010 13B1     		cbz	r3, .L8
  97              		.loc 1 109 0
  98 0012 436E     		ldr	r3, [r0, #100]
  99 0014 5B1A     		subs	r3, r3, r1
 100 0016 8366     		str	r3, [r0, #104]
 101              	.L8:
 102 0018 7047     		bx	lr
 103              	.L14:
 104 001a 00BF     		.align	2
 105              	.L13:
 106 001c 00000000 		.word	.LANCHOR0
 107              		.cfi_endproc
 108              	.LFE64:
 109              		.size	vexImeSetCount, .-vexImeSetCount
 110              		.section	.text.vexImeGetId,"ax",%progbits
 111              		.align	2
 112              		.p2align 4,,15
 113              		.global	vexImeGetId
 114              		.thumb
ARM GAS  /var/folders/vt/qg0v_q5n5k99pnp_yg24c7s80000gn/T//cc8PW4di.s 			page 3


 115              		.thumb_func
 116              		.type	vexImeGetId, %function
 117              	vexImeGetId:
 118              	.LFB65:
 119              		.loc 1 123 0
 120              		.cfi_startproc
 121              		@ args = 0, pretend = 0, frame = 0
 122              		@ frame_needed = 0, uses_anonymous_args = 0
 123              		@ link register save eliminated.
 124              	.LVL7:
 125              		.loc 1 124 0
 126 0000 C3B2     		uxtb	r3, r0
 127 0002 072B     		cmp	r3, #7
 128 0004 06D8     		bhi	.L17
 129              		.loc 1 128 0
 130 0006 054B     		ldr	r3, .L18
 131 0008 6C22     		movs	r2, #108
 132 000a 02FB0030 		mla	r0, r2, r0, r3
 133              	.LVL8:
 134 000e 007F     		ldrb	r0, [r0, #28]	@ zero_extendqisi2
 135              	.L16:
 136              		.loc 1 129 0
 137 0010 00B2     		sxth	r0, r0
 138 0012 7047     		bx	lr
 139              	.LVL9:
 140              	.L17:
 141              		.loc 1 125 0
 142 0014 4FF6FF70 		movw	r0, #65535
 143              	.LVL10:
 144 0018 FAE7     		b	.L16
 145              	.L19:
 146 001a 00BF     		.align	2
 147              	.L18:
 148 001c 00000000 		.word	.LANCHOR0
 149              		.cfi_endproc
 150              	.LFE65:
 151              		.size	vexImeGetId, .-vexImeGetId
 152              		.section	.text.vexImeGetPtr,"ax",%progbits
 153              		.align	2
 154              		.p2align 4,,15
 155              		.global	vexImeGetPtr
 156              		.thumb
 157              		.thumb_func
 158              		.type	vexImeGetPtr, %function
 159              	vexImeGetPtr:
 160              	.LFB66:
 161              		.loc 1 139 0
 162              		.cfi_startproc
 163              		@ args = 0, pretend = 0, frame = 0
 164              		@ frame_needed = 0, uses_anonymous_args = 0
 165              		@ link register save eliminated.
 166              	.LVL11:
 167              		.loc 1 140 0
 168 0000 0728     		cmp	r0, #7
 169 0002 05D8     		bhi	.L22
 170              		.loc 1 144 0
 171 0004 034B     		ldr	r3, .L23
ARM GAS  /var/folders/vt/qg0v_q5n5k99pnp_yg24c7s80000gn/T//cc8PW4di.s 			page 4


 172 0006 6C22     		movs	r2, #108
 173 0008 02FB0030 		mla	r0, r2, r0, r3
 174              	.LVL12:
 175 000c 1C30     		adds	r0, r0, #28
 176 000e 7047     		bx	lr
 177              	.LVL13:
 178              	.L22:
 179              		.loc 1 141 0
 180 0010 0020     		movs	r0, #0
 181              	.LVL14:
 182              		.loc 1 145 0
 183 0012 7047     		bx	lr
 184              	.L24:
 185              		.align	2
 186              	.L23:
 187 0014 00000000 		.word	.LANCHOR0
 188              		.cfi_endproc
 189              	.LFE66:
 190              		.size	vexImeGetPtr, .-vexImeGetPtr
 191              		.section	.text.vexImeGetChannelMax,"ax",%progbits
 192              		.align	2
 193              		.p2align 4,,15
 194              		.global	vexImeGetChannelMax
 195              		.thumb
 196              		.thumb_func
 197              		.type	vexImeGetChannelMax, %function
 198              	vexImeGetChannelMax:
 199              	.LFB67:
 200              		.loc 1 154 0
 201              		.cfi_startproc
 202              		@ args = 0, pretend = 0, frame = 0
 203              		@ frame_needed = 0, uses_anonymous_args = 0
 204              		@ link register save eliminated.
 205              		.loc 1 155 0
 206 0000 014B     		ldr	r3, .L26
 207              		.loc 1 156 0
 208 0002 B3F90800 		ldrsh	r0, [r3, #8]
 209 0006 7047     		bx	lr
 210              	.L27:
 211              		.align	2
 212              	.L26:
 213 0008 00000000 		.word	.LANCHOR0
 214              		.cfi_endproc
 215              	.LFE67:
 216              		.size	vexImeGetChannelMax, .-vexImeGetChannelMax
 217              		.section	.text.vexImeSetType,"ax",%progbits
 218              		.align	2
 219              		.p2align 4,,15
 220              		.global	vexImeSetType
 221              		.thumb
 222              		.thumb_func
 223              		.type	vexImeSetType, %function
 224              	vexImeSetType:
 225              	.LFB68:
 226              		.loc 1 169 0
 227              		.cfi_startproc
 228              		@ args = 0, pretend = 0, frame = 0
ARM GAS  /var/folders/vt/qg0v_q5n5k99pnp_yg24c7s80000gn/T//cc8PW4di.s 			page 5


 229              		@ frame_needed = 0, uses_anonymous_args = 0
 230              		@ link register save eliminated.
 231              	.LVL15:
 232              		.loc 1 170 0
 233 0000 0728     		cmp	r0, #7
 234 0002 0CD8     		bhi	.L28
 235              		.loc 1 189 0
 236 0004 0C4B     		ldr	r3, .L36
 237 0006 6C22     		movs	r2, #108
 238              		.loc 1 174 0
 239 0008 0139     		subs	r1, r1, #1
 240              	.LVL16:
 241              		.loc 1 189 0
 242 000a 02FB0030 		mla	r0, r2, r0, r3
 243              	.LVL17:
 244              		.loc 1 174 0
 245 000e 0329     		cmp	r1, #3
 246 0010 03D8     		bhi	.L30
 247 0012 DFE801F0 		tbb	[pc, r1]
 248              	.L32:
 249 0016 08       		.byte	(.L31-.L32)/2
 250 0017 0B       		.byte	(.L33-.L32)/2
 251 0018 0E       		.byte	(.L34-.L32)/2
 252 0019 05       		.byte	(.L35-.L32)/2
 253              		.p2align 1
 254              	.L30:
 255              		.loc 1 189 0
 256 001a 1023     		movs	r3, #16
 257 001c 4377     		strb	r3, [r0, #29]
 258              	.L28:
 259 001e 7047     		bx	lr
 260              	.L35:
 261              		.loc 1 186 0
 262 0020 0323     		movs	r3, #3
 263 0022 4377     		strb	r3, [r0, #29]
 264              		.loc 1 187 0
 265 0024 7047     		bx	lr
 266              	.L31:
 267              		.loc 1 177 0
 268 0026 0023     		movs	r3, #0
 269 0028 4377     		strb	r3, [r0, #29]
 270              		.loc 1 178 0
 271 002a 7047     		bx	lr
 272              	.L33:
 273              		.loc 1 180 0
 274 002c 0123     		movs	r3, #1
 275 002e 4377     		strb	r3, [r0, #29]
 276              		.loc 1 181 0
 277 0030 7047     		bx	lr
 278              	.L34:
 279              		.loc 1 183 0
 280 0032 0223     		movs	r3, #2
 281 0034 4377     		strb	r3, [r0, #29]
 282              		.loc 1 184 0
 283 0036 7047     		bx	lr
 284              	.L37:
 285              		.align	2
ARM GAS  /var/folders/vt/qg0v_q5n5k99pnp_yg24c7s80000gn/T//cc8PW4di.s 			page 6


 286              	.L36:
 287 0038 00000000 		.word	.LANCHOR0
 288              		.cfi_endproc
 289              	.LFE68:
 290              		.size	vexImeSetType, .-vexImeSetType
 291              		.section	.text.vexImeSetMotor,"ax",%progbits
 292              		.align	2
 293              		.p2align 4,,15
 294              		.global	vexImeSetMotor
 295              		.thumb
 296              		.thumb_func
 297              		.type	vexImeSetMotor, %function
 298              	vexImeSetMotor:
 299              	.LFB69:
 300              		.loc 1 202 0
 301              		.cfi_startproc
 302              		@ args = 0, pretend = 0, frame = 0
 303              		@ frame_needed = 0, uses_anonymous_args = 0
 304              		@ link register save eliminated.
 305              	.LVL18:
 306              		.loc 1 203 0
 307 0000 0728     		cmp	r0, #7
 308 0002 06D8     		bhi	.L38
 309              		.loc 1 205 0
 310 0004 0929     		cmp	r1, #9
 311 0006 04DC     		bgt	.L38
 312              		.loc 1 209 0
 313 0008 024B     		ldr	r3, .L40
 314 000a 6C22     		movs	r2, #108
 315 000c 02FB0030 		mla	r0, r2, r0, r3
 316              	.LVL19:
 317 0010 0184     		strh	r1, [r0, #32]	@ movhi
 318              	.L38:
 319 0012 7047     		bx	lr
 320              	.L41:
 321              		.align	2
 322              	.L40:
 323 0014 00000000 		.word	.LANCHOR0
 324              		.cfi_endproc
 325              	.LFE69:
 326              		.size	vexImeSetMotor, .-vexImeSetMotor
 327              		.section	.text.vexImeMotorGetCount,"ax",%progbits
 328              		.align	2
 329              		.p2align 4,,15
 330              		.global	vexImeMotorGetCount
 331              		.thumb
 332              		.thumb_func
 333              		.type	vexImeMotorGetCount, %function
 334              	vexImeMotorGetCount:
 335              	.LFB70:
 336              		.loc 1 221 0
 337              		.cfi_startproc
 338              		@ args = 0, pretend = 0, frame = 0
 339              		@ frame_needed = 0, uses_anonymous_args = 0
 340              		@ link register save eliminated.
 341              	.LVL20:
 342              		.loc 1 224 0
ARM GAS  /var/folders/vt/qg0v_q5n5k99pnp_yg24c7s80000gn/T//cc8PW4di.s 			page 7


 343 0000 0928     		cmp	r0, #9
 344 0002 0DDC     		bgt	.L46
 345              		.loc 1 221 0
 346 0004 10B4     		push	{r4}
 347              		.cfi_def_cfa_offset 4
 348              		.cfi_offset 4, -4
 349 0006 0C4C     		ldr	r4, .L52
 350              		.loc 1 224 0
 351 0008 0023     		movs	r3, #0
 352 000a 2246     		mov	r2, r4
 353              	.L45:
 354              	.LVL21:
 355              		.loc 1 230 0
 356 000c 118C     		ldrh	r1, [r2, #32]
 357 000e 6C32     		adds	r2, r2, #108
 358 0010 8142     		cmp	r1, r0
 359 0012 07D0     		beq	.L51
 360 0014 0133     		adds	r3, r3, #1
 361              	.LVL22:
 362              		.loc 1 228 0 discriminator 2
 363 0016 082B     		cmp	r3, #8
 364 0018 F8D1     		bne	.L45
 365              		.loc 1 225 0
 366 001a 0020     		movs	r0, #0
 367              	.LVL23:
 368              	.L43:
 369              		.loc 1 235 0
 370 001c 10BC     		pop	{r4}
 371              		.cfi_restore 4
 372              		.cfi_def_cfa_offset 0
 373 001e 7047     		bx	lr
 374              	.LVL24:
 375              	.L46:
 376              		.loc 1 225 0
 377 0020 0020     		movs	r0, #0
 378              	.LVL25:
 379 0022 7047     		bx	lr
 380              	.LVL26:
 381              	.L51:
 382              		.cfi_def_cfa_offset 4
 383              		.cfi_offset 4, -4
 384              	.LBB12:
 385              	.LBB13:
 386              	.LBB14:
 387              		.loc 1 89 0
 388 0024 6C22     		movs	r2, #108
 389 0026 02FB0343 		mla	r3, r2, r3, r4
 390              	.LVL27:
 391 002a D88B     		ldrh	r0, [r3, #30]
 392              	.LVL28:
 393 002c 0028     		cmp	r0, #0
 394 002e F5D0     		beq	.L43
 395              		.loc 1 90 0
 396 0030 5A6E     		ldr	r2, [r3, #100]
 397 0032 986E     		ldr	r0, [r3, #104]
 398 0034 101A     		subs	r0, r2, r0
 399 0036 F1E7     		b	.L43
ARM GAS  /var/folders/vt/qg0v_q5n5k99pnp_yg24c7s80000gn/T//cc8PW4di.s 			page 8


 400              	.L53:
 401              		.align	2
 402              	.L52:
 403 0038 00000000 		.word	.LANCHOR0
 404              	.LBE14:
 405              	.LBE13:
 406              	.LBE12:
 407              		.cfi_endproc
 408              	.LFE70:
 409              		.size	vexImeMotorGetCount, .-vexImeMotorGetCount
 410              		.section	.text.vexImeInit,"ax",%progbits
 411              		.align	2
 412              		.p2align 4,,15
 413              		.global	vexImeInit
 414              		.thumb
 415              		.thumb_func
 416              		.type	vexImeInit, %function
 417              	vexImeInit:
 418              	.LFB72:
 419              		.loc 1 313 0
 420              		.cfi_startproc
 421              		@ args = 0, pretend = 0, frame = 0
 422              		@ frame_needed = 0, uses_anonymous_args = 0
 423              	.LVL29:
 424 0000 F0B5     		push	{r4, r5, r6, r7, lr}
 425              		.cfi_def_cfa_offset 20
 426              		.cfi_offset 4, -20
 427              		.cfi_offset 5, -16
 428              		.cfi_offset 6, -12
 429              		.cfi_offset 7, -8
 430              		.cfi_offset 14, -4
 431 0002 0646     		mov	r6, r0
 432 0004 0F46     		mov	r7, r1
 433 0006 83B0     		sub	sp, sp, #12
 434              		.cfi_def_cfa_offset 32
 435              		.loc 1 318 0
 436 0008 1249     		ldr	r1, .L58
 437              	.LVL30:
 438 000a FFF7FEFF 		bl	i2cStart
 439              	.LVL31:
 440              		.loc 1 321 0
 441 000e 1249     		ldr	r1, .L58+4
 442              		.loc 1 326 0
 443 0010 0025     		movs	r5, #0
 444 0012 0B46     		mov	r3, r1
 445              		.loc 1 336 0
 446 0014 2A46     		mov	r2, r5
 447              		.loc 1 339 0
 448 0016 4FF6FF74 		movw	r4, #65535
 449              		.loc 1 321 0
 450 001a 81E8C000 		stmia	r1, {r6, r7}
 451 001e 01F55870 		add	r0, r1, #864
 452              		.loc 1 326 0
 453 0022 CD81     		strh	r5, [r1, #14]	@ movhi
 454              		.loc 1 327 0
 455 0024 4D82     		strh	r5, [r1, #18]	@ movhi
 456              		.loc 1 328 0
ARM GAS  /var/folders/vt/qg0v_q5n5k99pnp_yg24c7s80000gn/T//cc8PW4di.s 			page 9


 457 0026 0D82     		strh	r5, [r1, #16]	@ movhi
 458              		.loc 1 331 0
 459 0028 4D83     		strh	r5, [r1, #26]	@ movhi
 460              	.LVL32:
 461              	.L55:
 462              		.loc 1 336 0 discriminator 3
 463 002a 1A77     		strb	r2, [r3, #28]
 464              		.loc 1 337 0 discriminator 3
 465 002c C3F88020 		str	r2, [r3, #128]
 466              		.loc 1 338 0 discriminator 3
 467 0030 C3F88420 		str	r2, [r3, #132]
 468              		.loc 1 339 0 discriminator 3
 469 0034 1C84     		strh	r4, [r3, #32]	@ movhi
 470 0036 6C33     		adds	r3, r3, #108
 471              		.loc 1 334 0 discriminator 3
 472 0038 8342     		cmp	r3, r0
 473              		.loc 1 336 0 discriminator 3
 474 003a 4FF00001 		mov	r1, #0
 475              		.loc 1 334 0 discriminator 3
 476 003e F4D1     		bne	.L55
 477              		.loc 1 343 0
 478 0040 0091     		str	r1, [sp]
 479 0042 064B     		ldr	r3, .L58+8
 480 0044 4922     		movs	r2, #73
 481 0046 4FF42071 		mov	r1, #640
 482 004a 0548     		ldr	r0, .L58+12
 483 004c FFF7FEFF 		bl	chThdCreateStatic
 484              	.LVL33:
 485              		.loc 1 344 0
 486 0050 03B0     		add	sp, sp, #12
 487              		.cfi_def_cfa_offset 20
 488              		@ sp needed
 489 0052 F0BD     		pop	{r4, r5, r6, r7, pc}
 490              	.LVL34:
 491              	.L59:
 492              		.align	2
 493              	.L58:
 494 0054 00000000 		.word	.LANCHOR1
 495 0058 00000000 		.word	.LANCHOR0
 496 005c 00000000 		.word	vexImeTask
 497 0060 00000000 		.word	.LANCHOR2
 498              		.cfi_endproc
 499              	.LFE72:
 500              		.size	vexImeInit, .-vexImeInit
 501              		.section	.text.vexIMEDataInit,"ax",%progbits
 502              		.align	2
 503              		.p2align 4,,15
 504              		.global	vexIMEDataInit
 505              		.thumb
 506              		.thumb_func
 507              		.type	vexIMEDataInit, %function
 508              	vexIMEDataInit:
 509              	.LFB74:
 510              		.loc 1 405 0
 511              		.cfi_startproc
 512              		@ args = 0, pretend = 0, frame = 0
 513              		@ frame_needed = 0, uses_anonymous_args = 0
ARM GAS  /var/folders/vt/qg0v_q5n5k99pnp_yg24c7s80000gn/T//cc8PW4di.s 			page 10


 514              		@ link register save eliminated.
 515              	.LVL35:
 516 0000 F0B4     		push	{r4, r5, r6, r7}
 517              		.cfi_def_cfa_offset 16
 518              		.cfi_offset 4, -16
 519              		.cfi_offset 5, -12
 520              		.cfi_offset 6, -8
 521              		.cfi_offset 7, -4
 522              		.loc 1 407 0
 523 0002 0023     		movs	r3, #0
 524              		.loc 1 406 0
 525 0004 6027     		movs	r7, #96
 526              		.loc 1 416 0
 527 0006 4FF0FE46 		mov	r6, #2130706432
 528              		.loc 1 406 0
 529 000a 0770     		strb	r7, [r0]
 530              		.loc 1 416 0
 531 000c C665     		str	r6, [r0, #92]
 532              		.loc 1 407 0
 533 000e 4380     		strh	r3, [r0, #2]	@ movhi
 534              		.loc 1 409 0
 535 0010 C0F80630 		str	r3, [r0, #6]	@ unaligned
 536 0014 C0F80A30 		str	r3, [r0, #10]	@ unaligned
 537 0018 C0F80E30 		str	r3, [r0, #14]	@ unaligned
 538 001c C0F81230 		str	r3, [r0, #18]	@ unaligned
 539              		.loc 1 410 0
 540 0020 C0F81630 		str	r3, [r0, #22]	@ unaligned
 541 0024 C0F81A30 		str	r3, [r0, #26]	@ unaligned
 542 0028 C0F81E30 		str	r3, [r0, #30]	@ unaligned
 543 002c C0F82230 		str	r3, [r0, #34]	@ unaligned
 544              		.loc 1 411 0
 545 0030 C0F82630 		str	r3, [r0, #38]	@ unaligned
 546 0034 C0F82A30 		str	r3, [r0, #42]	@ unaligned
 547 0038 C0F82E30 		str	r3, [r0, #46]	@ unaligned
 548 003c C0F83230 		str	r3, [r0, #50]	@ unaligned
 549              		.loc 1 412 0
 550 0040 C0F83630 		str	r3, [r0, #54]	@ unaligned
 551 0044 C0F83A30 		str	r3, [r0, #58]	@ unaligned
 552 0048 C0F83E30 		str	r3, [r0, #62]	@ unaligned
 553 004c C0F84230 		str	r3, [r0, #66]	@ unaligned
 554              		.loc 1 414 0
 555 0050 8364     		str	r3, [r0, #72]
 556              		.loc 1 415 0
 557 0052 C364     		str	r3, [r0, #76]
 558              		.loc 1 417 0
 559 0054 0365     		str	r3, [r0, #80]
 560              		.loc 1 418 0
 561 0056 F0BC     		pop	{r4, r5, r6, r7}
 562              		.cfi_restore 7
 563              		.cfi_restore 6
 564              		.cfi_restore 5
 565              		.cfi_restore 4
 566              		.cfi_def_cfa_offset 0
 567 0058 7047     		bx	lr
 568              		.cfi_endproc
 569              	.LFE74:
 570              		.size	vexIMEDataInit, .-vexIMEDataInit
ARM GAS  /var/folders/vt/qg0v_q5n5k99pnp_yg24c7s80000gn/T//cc8PW4di.s 			page 11


 571 005a 00BF     		.section	.text.vexIMEResetAll,"ax",%progbits
 572              		.align	2
 573              		.p2align 4,,15
 574              		.global	vexIMEResetAll
 575              		.thumb
 576              		.thumb_func
 577              		.type	vexIMEResetAll, %function
 578              	vexIMEResetAll:
 579              	.LFB87:
 580              		.loc 1 871 0
 581              		.cfi_startproc
 582              		@ args = 0, pretend = 0, frame = 8
 583              		@ frame_needed = 0, uses_anonymous_args = 0
 584              	.LVL36:
 585 0000 30B5     		push	{r4, r5, lr}
 586              		.cfi_def_cfa_offset 12
 587              		.cfi_offset 4, -12
 588              		.cfi_offset 5, -8
 589              		.cfi_offset 14, -4
 590              		.loc 1 880 0
 591 0002 114C     		ldr	r4, .L64
 592              		.loc 1 871 0
 593 0004 87B0     		sub	sp, sp, #28
 594              		.cfi_def_cfa_offset 40
 595              		.loc 1 876 0
 596 0006 4E22     		movs	r2, #78
 597              		.loc 1 880 0
 598 0008 2068     		ldr	r0, [r4]
 599              		.loc 1 877 0
 600 000a CA23     		movs	r3, #202
 601              		.loc 1 878 0
 602 000c 0325     		movs	r5, #3
 603              		.loc 1 876 0
 604 000e 8DF81420 		strb	r2, [sp, #20]
 605              		.loc 1 877 0
 606 0012 8DF81530 		strb	r3, [sp, #21]
 607              		.loc 1 878 0
 608 0016 8DF81650 		strb	r5, [sp, #22]
 609              		.loc 1 880 0
 610 001a FFF7FEFF 		bl	i2cAcquireBus
 611              	.LVL37:
 612              		.loc 1 881 0
 613 001e 0021     		movs	r1, #0
 614 0020 0422     		movs	r2, #4
 615 0022 2B46     		mov	r3, r5
 616 0024 0191     		str	r1, [sp, #4]
 617 0026 0091     		str	r1, [sp]
 618 0028 0292     		str	r2, [sp, #8]
 619 002a 2068     		ldr	r0, [r4]
 620 002c 05AA     		add	r2, sp, #20
 621 002e FFF7FEFF 		bl	i2cMasterTransmitTimeout
 622              	.LVL38:
 623 0032 0546     		mov	r5, r0
 624              	.LVL39:
 625              		.loc 1 882 0
 626 0034 2068     		ldr	r0, [r4]
 627              	.LVL40:
ARM GAS  /var/folders/vt/qg0v_q5n5k99pnp_yg24c7s80000gn/T//cc8PW4di.s 			page 12


 628 0036 FFF7FEFF 		bl	i2cReleaseBus
 629              	.LVL41:
 630              		.loc 1 885 0
 631 003a 6420     		movs	r0, #100
 632 003c FFF7FEFF 		bl	chThdSleep
 633              	.LVL42:
 634              		.loc 1 888 0
 635 0040 2846     		mov	r0, r5
 636 0042 07B0     		add	sp, sp, #28
 637              		.cfi_def_cfa_offset 12
 638              		@ sp needed
 639 0044 30BD     		pop	{r4, r5, pc}
 640              	.LVL43:
 641              	.L65:
 642 0046 00BF     		.align	2
 643              	.L64:
 644 0048 00000000 		.word	.LANCHOR0
 645              		.cfi_endproc
 646              	.LFE87:
 647              		.size	vexIMEResetAll, .-vexIMEResetAll
 648              		.section	.text.vexIMEHandleErrors,"ax",%progbits
 649              		.align	2
 650              		.p2align 4,,15
 651              		.global	vexIMEHandleErrors
 652              		.thumb
 653              		.thumb_func
 654              		.type	vexIMEHandleErrors, %function
 655              	vexIMEHandleErrors:
 656              	.LFB88:
 657              		.loc 1 900 0
 658              		.cfi_startproc
 659              		@ args = 0, pretend = 0, frame = 0
 660              		@ frame_needed = 0, uses_anonymous_args = 0
 661              	.LVL44:
 662              		.loc 1 903 0
 663 0000 0130     		adds	r0, r0, #1
 664              	.LVL45:
 665              		.loc 1 900 0
 666 0002 38B5     		push	{r3, r4, r5, lr}
 667              		.cfi_def_cfa_offset 16
 668              		.cfi_offset 3, -16
 669              		.cfi_offset 4, -12
 670              		.cfi_offset 5, -8
 671              		.cfi_offset 14, -4
 672              		.loc 1 900 0
 673 0004 0C46     		mov	r4, r1
 674              		.loc 1 903 0
 675 0006 20D0     		beq	.L89
 676              	.LVL46:
 677              	.L67:
 678              		.loc 1 919 0
 679 0008 94B1     		cbz	r4, .L68
 680              		.loc 1 921 0
 681 000a 184B     		ldr	r3, .L90
 682 000c DA8A     		ldrh	r2, [r3, #22]
 683 000e 0132     		adds	r2, r2, #1
 684 0010 92B2     		uxth	r2, r2
ARM GAS  /var/folders/vt/qg0v_q5n5k99pnp_yg24c7s80000gn/T//cc8PW4di.s 			page 13


 685              		.loc 1 923 0
 686 0012 052A     		cmp	r2, #5
 687              		.loc 1 921 0
 688 0014 DA82     		strh	r2, [r3, #22]	@ movhi
 689              		.loc 1 926 0
 690 0016 04BF     		itt	eq
 691 0018 0122     		moveq	r2, #1
 692 001a 1A83     		strheq	r2, [r3, #24]	@ movhi
 693              		.loc 1 931 0
 694 001c 6007     		lsls	r0, r4, #29
 695 001e 02D5     		bpl	.L70
 696              		.loc 1 932 0
 697 0020 DA89     		ldrh	r2, [r3, #14]
 698 0022 0132     		adds	r2, r2, #1
 699 0024 DA81     		strh	r2, [r3, #14]	@ movhi
 700              	.L70:
 701              		.loc 1 933 0
 702 0026 A107     		lsls	r1, r4, #30
 703 0028 02D5     		bpl	.L68
 704              		.loc 1 934 0
 705 002a 5A8A     		ldrh	r2, [r3, #18]
 706 002c 0132     		adds	r2, r2, #1
 707 002e 5A82     		strh	r2, [r3, #18]	@ movhi
 708              	.L68:
 709              		.loc 1 935 0
 710 0030 E207     		lsls	r2, r4, #31
 711 0032 03D5     		bpl	.L71
 712              		.loc 1 936 0
 713 0034 0D4A     		ldr	r2, .L90
 714 0036 138A     		ldrh	r3, [r2, #16]
 715 0038 0133     		adds	r3, r3, #1
 716 003a 1382     		strh	r3, [r2, #16]	@ movhi
 717              	.L71:
 718              		.loc 1 937 0
 719 003c A306     		lsls	r3, r4, #26
 720 003e 03D5     		bpl	.L66
 721              		.loc 1 938 0
 722 0040 0A4A     		ldr	r2, .L90
 723 0042 938A     		ldrh	r3, [r2, #20]
 724 0044 0133     		adds	r3, r3, #1
 725 0046 9382     		strh	r3, [r2, #20]	@ movhi
 726              	.L66:
 727 0048 38BD     		pop	{r3, r4, r5, pc}
 728              	.LVL47:
 729              	.L89:
 730              		.loc 1 906 0
 731 004a 084D     		ldr	r5, .L90
 732 004c AB89     		ldrh	r3, [r5, #12]
 733              		.loc 1 908 0
 734 004e 2868     		ldr	r0, [r5]
 735              		.loc 1 906 0
 736 0050 0133     		adds	r3, r3, #1
 737 0052 AB81     		strh	r3, [r5, #12]	@ movhi
 738              		.loc 1 908 0
 739 0054 FFF7FEFF 		bl	i2cStop
 740              	.LVL48:
 741              		.loc 1 910 0
ARM GAS  /var/folders/vt/qg0v_q5n5k99pnp_yg24c7s80000gn/T//cc8PW4di.s 			page 14


 742 0058 6420     		movs	r0, #100
 743 005a FFF7FEFF 		bl	chThdSleep
 744              	.LVL49:
 745              		.loc 1 912 0
 746 005e 2868     		ldr	r0, [r5]
 747 0060 0349     		ldr	r1, .L90+4
 748 0062 FFF7FEFF 		bl	i2cStart
 749              	.LVL50:
 750              		.loc 1 914 0
 751 0066 0123     		movs	r3, #1
 752 0068 2B83     		strh	r3, [r5, #24]	@ movhi
 753 006a CDE7     		b	.L67
 754              	.L91:
 755              		.align	2
 756              	.L90:
 757 006c 00000000 		.word	.LANCHOR0
 758 0070 00000000 		.word	.LANCHOR1
 759              		.cfi_endproc
 760              	.LFE88:
 761              		.size	vexIMEHandleErrors, .-vexIMEHandleErrors
 762              		.section	.text.vexIMEGetVersion,"ax",%progbits
 763              		.align	2
 764              		.p2align 4,,15
 765              		.global	vexIMEGetVersion
 766              		.thumb
 767              		.thumb_func
 768              		.type	vexIMEGetVersion, %function
 769              	vexIMEGetVersion:
 770              	.LFB76:
 771              		.loc 1 529 0
 772              		.cfi_startproc
 773              		@ args = 0, pretend = 0, frame = 8
 774              		@ frame_needed = 0, uses_anonymous_args = 0
 775              	.LVL51:
 776 0000 2DE9F041 		push	{r4, r5, r6, r7, r8, lr}
 777              		.cfi_def_cfa_offset 24
 778              		.cfi_offset 4, -24
 779              		.cfi_offset 5, -20
 780              		.cfi_offset 6, -16
 781              		.cfi_offset 7, -12
 782              		.cfi_offset 8, -8
 783              		.cfi_offset 14, -4
 784 0004 8846     		mov	r8, r1
 785 0006 0746     		mov	r7, r0
 786              		.loc 1 533 0
 787 0008 124C     		ldr	r4, .L98
 788              		.loc 1 529 0
 789 000a 86B0     		sub	sp, sp, #24
 790              		.cfi_def_cfa_offset 48
 791              		.loc 1 531 0
 792 000c 06AD     		add	r5, sp, #24
 793 000e 0023     		movs	r3, #0
 794              		.loc 1 533 0
 795 0010 2068     		ldr	r0, [r4]
 796              	.LVL52:
 797              		.loc 1 531 0
 798 0012 05F8013D 		strb	r3, [r5, #-1]!
ARM GAS  /var/folders/vt/qg0v_q5n5k99pnp_yg24c7s80000gn/T//cc8PW4di.s 			page 15


 799              		.loc 1 534 0
 800 0016 0426     		movs	r6, #4
 801              		.loc 1 533 0
 802 0018 FFF7FEFF 		bl	i2cAcquireBus
 803              	.LVL53:
 804              		.loc 1 534 0
 805 001c 0823     		movs	r3, #8
 806 001e 2A46     		mov	r2, r5
 807 0020 0193     		str	r3, [sp, #4]
 808 0022 2068     		ldr	r0, [r4]
 809 0024 CDF80080 		str	r8, [sp]
 810 0028 7908     		lsrs	r1, r7, #1
 811 002a 0296     		str	r6, [sp, #8]
 812 002c 0123     		movs	r3, #1
 813 002e FFF7FEFF 		bl	i2cMasterTransmitTimeout
 814              	.LVL54:
 815 0032 0546     		mov	r5, r0
 816              	.LVL55:
 817              		.loc 1 535 0
 818 0034 2068     		ldr	r0, [r4]
 819              	.LVL56:
 820 0036 FFF7FEFF 		bl	i2cReleaseBus
 821              	.LVL57:
 822              		.loc 1 537 0
 823 003a 35B1     		cbz	r5, .L93
 824              		.loc 1 538 0
 825 003c 2068     		ldr	r0, [r4]
 826 003e FFF7FEFF 		bl	i2cGetErrors
 827              	.LVL58:
 828              		.loc 1 539 0
 829 0042 0146     		mov	r1, r0
 830 0044 2846     		mov	r0, r5
 831 0046 FFF7FEFF 		bl	vexIMEHandleErrors
 832              	.LVL59:
 833              	.L93:
 834              		.loc 1 543 0
 835 004a 2846     		mov	r0, r5
 836 004c 06B0     		add	sp, sp, #24
 837              		.cfi_def_cfa_offset 24
 838              		@ sp needed
 839 004e BDE8F081 		pop	{r4, r5, r6, r7, r8, pc}
 840              	.LVL60:
 841              	.L99:
 842 0052 00BF     		.align	2
 843              	.L98:
 844 0054 00000000 		.word	.LANCHOR0
 845              		.cfi_endproc
 846              	.LFE76:
 847              		.size	vexIMEGetVersion, .-vexIMEGetVersion
 848              		.section	.text.vexIMEGetVendor,"ax",%progbits
 849              		.align	2
 850              		.p2align 4,,15
 851              		.global	vexIMEGetVendor
 852              		.thumb
 853              		.thumb_func
 854              		.type	vexIMEGetVendor, %function
 855              	vexIMEGetVendor:
ARM GAS  /var/folders/vt/qg0v_q5n5k99pnp_yg24c7s80000gn/T//cc8PW4di.s 			page 16


 856              	.LFB77:
 857              		.loc 1 558 0
 858              		.cfi_startproc
 859              		@ args = 0, pretend = 0, frame = 8
 860              		@ frame_needed = 0, uses_anonymous_args = 0
 861              	.LVL61:
 862 0000 2DE9F041 		push	{r4, r5, r6, r7, r8, lr}
 863              		.cfi_def_cfa_offset 24
 864              		.cfi_offset 4, -24
 865              		.cfi_offset 5, -20
 866              		.cfi_offset 6, -16
 867              		.cfi_offset 7, -12
 868              		.cfi_offset 8, -8
 869              		.cfi_offset 14, -4
 870 0004 8846     		mov	r8, r1
 871 0006 0746     		mov	r7, r0
 872              		.loc 1 562 0
 873 0008 114C     		ldr	r4, .L106
 874              		.loc 1 558 0
 875 000a 86B0     		sub	sp, sp, #24
 876              		.cfi_def_cfa_offset 48
 877              		.loc 1 560 0
 878 000c 06AD     		add	r5, sp, #24
 879 000e 0826     		movs	r6, #8
 880              		.loc 1 562 0
 881 0010 2068     		ldr	r0, [r4]
 882              	.LVL62:
 883              		.loc 1 560 0
 884 0012 05F8016D 		strb	r6, [r5, #-1]!
 885              		.loc 1 562 0
 886 0016 FFF7FEFF 		bl	i2cAcquireBus
 887              	.LVL63:
 888              		.loc 1 563 0
 889 001a 0423     		movs	r3, #4
 890 001c 2A46     		mov	r2, r5
 891 001e 0293     		str	r3, [sp, #8]
 892 0020 2068     		ldr	r0, [r4]
 893 0022 CDF80080 		str	r8, [sp]
 894 0026 0196     		str	r6, [sp, #4]
 895 0028 7908     		lsrs	r1, r7, #1
 896 002a 0123     		movs	r3, #1
 897 002c FFF7FEFF 		bl	i2cMasterTransmitTimeout
 898              	.LVL64:
 899 0030 0546     		mov	r5, r0
 900              	.LVL65:
 901              		.loc 1 564 0
 902 0032 2068     		ldr	r0, [r4]
 903              	.LVL66:
 904 0034 FFF7FEFF 		bl	i2cReleaseBus
 905              	.LVL67:
 906              		.loc 1 566 0
 907 0038 35B1     		cbz	r5, .L101
 908              		.loc 1 567 0
 909 003a 2068     		ldr	r0, [r4]
 910 003c FFF7FEFF 		bl	i2cGetErrors
 911              	.LVL68:
 912              		.loc 1 568 0
ARM GAS  /var/folders/vt/qg0v_q5n5k99pnp_yg24c7s80000gn/T//cc8PW4di.s 			page 17


 913 0040 0146     		mov	r1, r0
 914 0042 2846     		mov	r0, r5
 915 0044 FFF7FEFF 		bl	vexIMEHandleErrors
 916              	.LVL69:
 917              	.L101:
 918              		.loc 1 572 0
 919 0048 2846     		mov	r0, r5
 920 004a 06B0     		add	sp, sp, #24
 921              		.cfi_def_cfa_offset 24
 922              		@ sp needed
 923 004c BDE8F081 		pop	{r4, r5, r6, r7, r8, pc}
 924              	.LVL70:
 925              	.L107:
 926              		.align	2
 927              	.L106:
 928 0050 00000000 		.word	.LANCHOR0
 929              		.cfi_endproc
 930              	.LFE77:
 931              		.size	vexIMEGetVendor, .-vexIMEGetVendor
 932              		.section	.text.vexIMEGetDeviceId,"ax",%progbits
 933              		.align	2
 934              		.p2align 4,,15
 935              		.global	vexIMEGetDeviceId
 936              		.thumb
 937              		.thumb_func
 938              		.type	vexIMEGetDeviceId, %function
 939              	vexIMEGetDeviceId:
 940              	.LFB78:
 941              		.loc 1 587 0
 942              		.cfi_startproc
 943              		@ args = 0, pretend = 0, frame = 8
 944              		@ frame_needed = 0, uses_anonymous_args = 0
 945              	.LVL71:
 946 0000 2DE9F041 		push	{r4, r5, r6, r7, r8, lr}
 947              		.cfi_def_cfa_offset 24
 948              		.cfi_offset 4, -24
 949              		.cfi_offset 5, -20
 950              		.cfi_offset 6, -16
 951              		.cfi_offset 7, -12
 952              		.cfi_offset 8, -8
 953              		.cfi_offset 14, -4
 954 0004 8846     		mov	r8, r1
 955 0006 0746     		mov	r7, r0
 956              		.loc 1 591 0
 957 0008 124C     		ldr	r4, .L114
 958              		.loc 1 587 0
 959 000a 86B0     		sub	sp, sp, #24
 960              		.cfi_def_cfa_offset 48
 961              		.loc 1 589 0
 962 000c 06AD     		add	r5, sp, #24
 963 000e 1023     		movs	r3, #16
 964              		.loc 1 591 0
 965 0010 2068     		ldr	r0, [r4]
 966              	.LVL72:
 967              		.loc 1 589 0
 968 0012 05F8013D 		strb	r3, [r5, #-1]!
 969              		.loc 1 592 0
ARM GAS  /var/folders/vt/qg0v_q5n5k99pnp_yg24c7s80000gn/T//cc8PW4di.s 			page 18


 970 0016 0426     		movs	r6, #4
 971              		.loc 1 591 0
 972 0018 FFF7FEFF 		bl	i2cAcquireBus
 973              	.LVL73:
 974              		.loc 1 592 0
 975 001c 0823     		movs	r3, #8
 976 001e 2A46     		mov	r2, r5
 977 0020 0193     		str	r3, [sp, #4]
 978 0022 2068     		ldr	r0, [r4]
 979 0024 CDF80080 		str	r8, [sp]
 980 0028 7908     		lsrs	r1, r7, #1
 981 002a 0296     		str	r6, [sp, #8]
 982 002c 0123     		movs	r3, #1
 983 002e FFF7FEFF 		bl	i2cMasterTransmitTimeout
 984              	.LVL74:
 985 0032 0546     		mov	r5, r0
 986              	.LVL75:
 987              		.loc 1 593 0
 988 0034 2068     		ldr	r0, [r4]
 989              	.LVL76:
 990 0036 FFF7FEFF 		bl	i2cReleaseBus
 991              	.LVL77:
 992              		.loc 1 595 0
 993 003a 35B1     		cbz	r5, .L109
 994              		.loc 1 596 0
 995 003c 2068     		ldr	r0, [r4]
 996 003e FFF7FEFF 		bl	i2cGetErrors
 997              	.LVL78:
 998              		.loc 1 597 0
 999 0042 0146     		mov	r1, r0
 1000 0044 2846     		mov	r0, r5
 1001 0046 FFF7FEFF 		bl	vexIMEHandleErrors
 1002              	.LVL79:
 1003              	.L109:
 1004              		.loc 1 601 0
 1005 004a 2846     		mov	r0, r5
 1006 004c 06B0     		add	sp, sp, #24
 1007              		.cfi_def_cfa_offset 24
 1008              		@ sp needed
 1009 004e BDE8F081 		pop	{r4, r5, r6, r7, r8, pc}
 1010              	.LVL80:
 1011              	.L115:
 1012 0052 00BF     		.align	2
 1013              	.L114:
 1014 0054 00000000 		.word	.LANCHOR0
 1015              		.cfi_endproc
 1016              	.LFE78:
 1017              		.size	vexIMEGetDeviceId, .-vexIMEGetDeviceId
 1018              		.section	.text.vexIMEGetStatus,"ax",%progbits
 1019              		.align	2
 1020              		.p2align 4,,15
 1021              		.global	vexIMEGetStatus
 1022              		.thumb
 1023              		.thumb_func
 1024              		.type	vexIMEGetStatus, %function
 1025              	vexIMEGetStatus:
 1026              	.LFB79:
ARM GAS  /var/folders/vt/qg0v_q5n5k99pnp_yg24c7s80000gn/T//cc8PW4di.s 			page 19


 1027              		.loc 1 616 0
 1028              		.cfi_startproc
 1029              		@ args = 0, pretend = 0, frame = 8
 1030              		@ frame_needed = 0, uses_anonymous_args = 0
 1031              	.LVL81:
 1032 0000 F0B5     		push	{r4, r5, r6, r7, lr}
 1033              		.cfi_def_cfa_offset 20
 1034              		.cfi_offset 4, -20
 1035              		.cfi_offset 5, -16
 1036              		.cfi_offset 6, -12
 1037              		.cfi_offset 7, -8
 1038              		.cfi_offset 14, -4
 1039 0002 0F46     		mov	r7, r1
 1040 0004 0646     		mov	r6, r0
 1041              		.loc 1 620 0
 1042 0006 114C     		ldr	r4, .L122
 1043              		.loc 1 616 0
 1044 0008 87B0     		sub	sp, sp, #28
 1045              		.cfi_def_cfa_offset 48
 1046              		.loc 1 618 0
 1047 000a 06AD     		add	r5, sp, #24
 1048 000c 2023     		movs	r3, #32
 1049              		.loc 1 620 0
 1050 000e 2068     		ldr	r0, [r4]
 1051              	.LVL82:
 1052              		.loc 1 618 0
 1053 0010 05F8013D 		strb	r3, [r5, #-1]!
 1054              		.loc 1 620 0
 1055 0014 FFF7FEFF 		bl	i2cAcquireBus
 1056              	.LVL83:
 1057              		.loc 1 621 0
 1058 0018 0423     		movs	r3, #4
 1059 001a 2A46     		mov	r2, r5
 1060 001c 0293     		str	r3, [sp, #8]
 1061 001e 0193     		str	r3, [sp, #4]
 1062 0020 2068     		ldr	r0, [r4]
 1063 0022 0097     		str	r7, [sp]
 1064 0024 7108     		lsrs	r1, r6, #1
 1065 0026 0123     		movs	r3, #1
 1066 0028 FFF7FEFF 		bl	i2cMasterTransmitTimeout
 1067              	.LVL84:
 1068 002c 0546     		mov	r5, r0
 1069              	.LVL85:
 1070              		.loc 1 622 0
 1071 002e 2068     		ldr	r0, [r4]
 1072              	.LVL86:
 1073 0030 FFF7FEFF 		bl	i2cReleaseBus
 1074              	.LVL87:
 1075              		.loc 1 624 0
 1076 0034 35B1     		cbz	r5, .L117
 1077              		.loc 1 625 0
 1078 0036 2068     		ldr	r0, [r4]
 1079 0038 FFF7FEFF 		bl	i2cGetErrors
 1080              	.LVL88:
 1081              		.loc 1 626 0
 1082 003c 0146     		mov	r1, r0
 1083 003e 2846     		mov	r0, r5
ARM GAS  /var/folders/vt/qg0v_q5n5k99pnp_yg24c7s80000gn/T//cc8PW4di.s 			page 20


 1084 0040 FFF7FEFF 		bl	vexIMEHandleErrors
 1085              	.LVL89:
 1086              	.L117:
 1087              		.loc 1 630 0
 1088 0044 2846     		mov	r0, r5
 1089 0046 07B0     		add	sp, sp, #28
 1090              		.cfi_def_cfa_offset 20
 1091              		@ sp needed
 1092 0048 F0BD     		pop	{r4, r5, r6, r7, pc}
 1093              	.LVL90:
 1094              	.L123:
 1095 004a 00BF     		.align	2
 1096              	.L122:
 1097 004c 00000000 		.word	.LANCHOR0
 1098              		.cfi_endproc
 1099              	.LFE79:
 1100              		.size	vexIMEGetStatus, .-vexIMEGetStatus
 1101              		.section	.text.vexIMEGetData,"ax",%progbits
 1102              		.align	2
 1103              		.p2align 4,,15
 1104              		.global	vexIMEGetData
 1105              		.thumb
 1106              		.thumb_func
 1107              		.type	vexIMEGetData, %function
 1108              	vexIMEGetData:
 1109              	.LFB80:
 1110              		.loc 1 645 0
 1111              		.cfi_startproc
 1112              		@ args = 0, pretend = 0, frame = 8
 1113              		@ frame_needed = 0, uses_anonymous_args = 0
 1114              	.LVL91:
 1115 0000 2DE9F041 		push	{r4, r5, r6, r7, r8, lr}
 1116              		.cfi_def_cfa_offset 24
 1117              		.cfi_offset 4, -24
 1118              		.cfi_offset 5, -20
 1119              		.cfi_offset 6, -16
 1120              		.cfi_offset 7, -12
 1121              		.cfi_offset 8, -8
 1122              		.cfi_offset 14, -4
 1123 0004 8846     		mov	r8, r1
 1124 0006 0746     		mov	r7, r0
 1125              		.loc 1 649 0
 1126 0008 124C     		ldr	r4, .L130
 1127              		.loc 1 645 0
 1128 000a 86B0     		sub	sp, sp, #24
 1129              		.cfi_def_cfa_offset 48
 1130              		.loc 1 647 0
 1131 000c 06AD     		add	r5, sp, #24
 1132 000e 4023     		movs	r3, #64
 1133              		.loc 1 649 0
 1134 0010 2068     		ldr	r0, [r4]
 1135              	.LVL92:
 1136              		.loc 1 647 0
 1137 0012 05F8013D 		strb	r3, [r5, #-1]!
 1138              		.loc 1 650 0
 1139 0016 0426     		movs	r6, #4
 1140              		.loc 1 649 0
ARM GAS  /var/folders/vt/qg0v_q5n5k99pnp_yg24c7s80000gn/T//cc8PW4di.s 			page 21


 1141 0018 FFF7FEFF 		bl	i2cAcquireBus
 1142              	.LVL93:
 1143              		.loc 1 650 0
 1144 001c 0823     		movs	r3, #8
 1145 001e 2A46     		mov	r2, r5
 1146 0020 0193     		str	r3, [sp, #4]
 1147 0022 2068     		ldr	r0, [r4]
 1148 0024 CDF80080 		str	r8, [sp]
 1149 0028 7908     		lsrs	r1, r7, #1
 1150 002a 0296     		str	r6, [sp, #8]
 1151 002c 0123     		movs	r3, #1
 1152 002e FFF7FEFF 		bl	i2cMasterTransmitTimeout
 1153              	.LVL94:
 1154 0032 0546     		mov	r5, r0
 1155              	.LVL95:
 1156              		.loc 1 651 0
 1157 0034 2068     		ldr	r0, [r4]
 1158              	.LVL96:
 1159 0036 FFF7FEFF 		bl	i2cReleaseBus
 1160              	.LVL97:
 1161              		.loc 1 653 0
 1162 003a 35B1     		cbz	r5, .L125
 1163              		.loc 1 654 0
 1164 003c 2068     		ldr	r0, [r4]
 1165 003e FFF7FEFF 		bl	i2cGetErrors
 1166              	.LVL98:
 1167              		.loc 1 655 0
 1168 0042 0146     		mov	r1, r0
 1169 0044 2846     		mov	r0, r5
 1170 0046 FFF7FEFF 		bl	vexIMEHandleErrors
 1171              	.LVL99:
 1172              	.L125:
 1173              		.loc 1 659 0
 1174 004a 2846     		mov	r0, r5
 1175 004c 06B0     		add	sp, sp, #24
 1176              		.cfi_def_cfa_offset 24
 1177              		@ sp needed
 1178 004e BDE8F081 		pop	{r4, r5, r6, r7, r8, pc}
 1179              	.LVL100:
 1180              	.L131:
 1181 0052 00BF     		.align	2
 1182              	.L130:
 1183 0054 00000000 		.word	.LANCHOR0
 1184              		.cfi_endproc
 1185              	.LFE80:
 1186              		.size	vexIMEGetData, .-vexIMEGetData
 1187              		.section	.text.vexIMEUpdateCounts,"ax",%progbits
 1188              		.align	2
 1189              		.p2align 4,,15
 1190              		.global	vexIMEUpdateCounts
 1191              		.thumb
 1192              		.thumb_func
 1193              		.type	vexIMEUpdateCounts, %function
 1194              	vexIMEUpdateCounts:
 1195              	.LFB73:
 1196              		.loc 1 359 0
 1197              		.cfi_startproc
ARM GAS  /var/folders/vt/qg0v_q5n5k99pnp_yg24c7s80000gn/T//cc8PW4di.s 			page 22


 1198              		@ args = 0, pretend = 0, frame = 0
 1199              		@ frame_needed = 0, uses_anonymous_args = 0
 1200              	.LVL101:
 1201              		.loc 1 362 0
 1202 0000 0028     		cmp	r0, #0
 1203 0002 35D0     		beq	.L142
 1204              		.loc 1 359 0
 1205 0004 70B5     		push	{r4, r5, r6, lr}
 1206              		.cfi_def_cfa_offset 16
 1207              		.cfi_offset 4, -16
 1208              		.cfi_offset 5, -12
 1209              		.cfi_offset 6, -8
 1210              		.cfi_offset 14, -4
 1211              		.loc 1 366 0
 1212 0006 436E     		ldr	r3, [r0, #100]
 1213 0008 0446     		mov	r4, r0
 1214 000a 0133     		adds	r3, r3, #1
 1215              		.loc 1 369 0
 1216 000c 00F13601 		add	r1, r0, #54
 1217              		.loc 1 366 0
 1218 0010 4366     		str	r3, [r0, #100]
 1219              		.loc 1 369 0
 1220 0012 0078     		ldrb	r0, [r0]	@ zero_extendqisi2
 1221              	.LVL102:
 1222 0014 FFF7FEFF 		bl	vexIMEGetData
 1223              	.LVL103:
 1224 0018 30BB     		cbnz	r0, .L134
 1225              		.loc 1 372 0
 1226 001a 94F83830 		ldrb	r3, [r4, #56]	@ zero_extendqisi2
 1227 001e 94F83610 		ldrb	r1, [r4, #54]	@ zero_extendqisi2
 1228 0022 94F83720 		ldrb	r2, [r4, #55]	@ zero_extendqisi2
 1229 0026 1B06     		lsls	r3, r3, #24
 1230 0028 43EA0123 		orr	r3, r3, r1, lsl #8
 1231 002c 94F83960 		ldrb	r6, [r4, #57]	@ zero_extendqisi2
 1232              		.loc 1 373 0
 1233 0030 94F83A50 		ldrb	r5, [r4, #58]	@ zero_extendqisi2
 1234 0034 94F83B10 		ldrb	r1, [r4, #59]	@ zero_extendqisi2
 1235              		.loc 1 375 0
 1236 0038 E06D     		ldr	r0, [r4, #92]
 1237              	.LVL104:
 1238              		.loc 1 372 0
 1239 003a 1343     		orrs	r3, r3, r2
 1240 003c 43EA0643 		orr	r3, r3, r6, lsl #16
 1241              		.loc 1 373 0
 1242 0040 01EB0522 		add	r2, r1, r5, lsl #8
 1243              		.loc 1 375 0
 1244 0044 B0F1FE4F 		cmp	r0, #2130706432
 1245              		.loc 1 372 0
 1246 0048 A364     		str	r3, [r4, #72]
 1247              		.loc 1 373 0
 1248 004a 2265     		str	r2, [r4, #80]
 1249              		.loc 1 375 0
 1250 004c 09D0     		beq	.L135
 1251              		.loc 1 377 0
 1252 004e 181A     		subs	r0, r3, r0
 1253 0050 6065     		str	r0, [r4, #84]
 1254              		.loc 1 380 0
ARM GAS  /var/folders/vt/qg0v_q5n5k99pnp_yg24c7s80000gn/T//cc8PW4di.s 			page 23


 1255 0052 72B1     		cbz	r2, .L136
 1256              		.loc 1 381 0
 1257 0054 206E     		ldr	r0, [r4, #96]
 1258 0056 0949     		ldr	r1, .L143
 1259 0058 00FB02F2 		mul	r2, r0, r2
 1260 005c 91FBF2F2 		sdiv	r2, r1, r2
 1261 0060 A265     		str	r2, [r4, #88]
 1262              	.L135:
 1263              		.loc 1 386 0
 1264 0062 E365     		str	r3, [r4, #92]
 1265 0064 0020     		movs	r0, #0
 1266 0066 70BD     		pop	{r4, r5, r6, pc}
 1267              	.LVL105:
 1268              	.L134:
 1269              		.loc 1 391 0
 1270 0068 A36E     		ldr	r3, [r4, #104]
 1271 006a 0133     		adds	r3, r3, #1
 1272 006c A366     		str	r3, [r4, #104]
 1273              		.loc 1 395 0
 1274 006e 70BD     		pop	{r4, r5, r6, pc}
 1275              	.LVL106:
 1276              	.L142:
 1277              		.cfi_def_cfa_offset 0
 1278              		.cfi_restore 4
 1279              		.cfi_restore 5
 1280              		.cfi_restore 6
 1281              		.cfi_restore 14
 1282 0070 7047     		bx	lr
 1283              	.LVL107:
 1284              	.L136:
 1285              		.cfi_def_cfa_offset 16
 1286              		.cfi_offset 4, -16
 1287              		.cfi_offset 5, -12
 1288              		.cfi_offset 6, -8
 1289              		.cfi_offset 14, -4
 1290              		.loc 1 383 0
 1291 0072 A265     		str	r2, [r4, #88]
 1292              		.loc 1 386 0
 1293 0074 E365     		str	r3, [r4, #92]
 1294 0076 0020     		movs	r0, #0
 1295 0078 70BD     		pop	{r4, r5, r6, pc}
 1296              	.LVL108:
 1297              	.L144:
 1298 007a 00BF     		.align	2
 1299              	.L143:
 1300 007c 5847F80D 		.word	234375000
 1301              		.cfi_endproc
 1302              	.LFE73:
 1303              		.size	vexIMEUpdateCounts, .-vexIMEUpdateCounts
 1304              		.section	.text.vexIMEGetScratchpad,"ax",%progbits
 1305              		.align	2
 1306              		.p2align 4,,15
 1307              		.global	vexIMEGetScratchpad
 1308              		.thumb
 1309              		.thumb_func
 1310              		.type	vexIMEGetScratchpad, %function
 1311              	vexIMEGetScratchpad:
ARM GAS  /var/folders/vt/qg0v_q5n5k99pnp_yg24c7s80000gn/T//cc8PW4di.s 			page 24


 1312              	.LFB81:
 1313              		.loc 1 676 0
 1314              		.cfi_startproc
 1315              		@ args = 0, pretend = 0, frame = 8
 1316              		@ frame_needed = 0, uses_anonymous_args = 0
 1317              	.LVL109:
 1318 0000 2DE9F043 		push	{r4, r5, r6, r7, r8, r9, lr}
 1319              		.cfi_def_cfa_offset 28
 1320              		.cfi_offset 4, -28
 1321              		.cfi_offset 5, -24
 1322              		.cfi_offset 6, -20
 1323              		.cfi_offset 7, -16
 1324              		.cfi_offset 8, -12
 1325              		.cfi_offset 9, -8
 1326              		.cfi_offset 14, -4
 1327 0004 8846     		mov	r8, r1
 1328 0006 9946     		mov	r9, r3
 1329 0008 0746     		mov	r7, r0
 1330 000a 87B0     		sub	sp, sp, #28
 1331              		.cfi_def_cfa_offset 56
 1332              		.loc 1 680 0
 1333 000c 114C     		ldr	r4, .L151
 1334              		.loc 1 678 0
 1335 000e 06AD     		add	r5, sp, #24
 1336 0010 6032     		adds	r2, r2, #96
 1337              	.LVL110:
 1338 0012 05F8012D 		strb	r2, [r5, #-1]!
 1339              		.loc 1 680 0
 1340 0016 2068     		ldr	r0, [r4]
 1341              	.LVL111:
 1342              		.loc 1 681 0
 1343 0018 0426     		movs	r6, #4
 1344              		.loc 1 680 0
 1345 001a FFF7FEFF 		bl	i2cAcquireBus
 1346              	.LVL112:
 1347              		.loc 1 681 0
 1348 001e 2A46     		mov	r2, r5
 1349 0020 2068     		ldr	r0, [r4]
 1350 0022 CDF80490 		str	r9, [sp, #4]
 1351 0026 CDF80080 		str	r8, [sp]
 1352 002a 7908     		lsrs	r1, r7, #1
 1353 002c 0296     		str	r6, [sp, #8]
 1354 002e 0123     		movs	r3, #1
 1355 0030 FFF7FEFF 		bl	i2cMasterTransmitTimeout
 1356              	.LVL113:
 1357 0034 0546     		mov	r5, r0
 1358              	.LVL114:
 1359              		.loc 1 682 0
 1360 0036 2068     		ldr	r0, [r4]
 1361              	.LVL115:
 1362 0038 FFF7FEFF 		bl	i2cReleaseBus
 1363              	.LVL116:
 1364              		.loc 1 684 0
 1365 003c 35B1     		cbz	r5, .L146
 1366              		.loc 1 685 0
 1367 003e 2068     		ldr	r0, [r4]
 1368 0040 FFF7FEFF 		bl	i2cGetErrors
ARM GAS  /var/folders/vt/qg0v_q5n5k99pnp_yg24c7s80000gn/T//cc8PW4di.s 			page 25


 1369              	.LVL117:
 1370              		.loc 1 686 0
 1371 0044 0146     		mov	r1, r0
 1372 0046 2846     		mov	r0, r5
 1373 0048 FFF7FEFF 		bl	vexIMEHandleErrors
 1374              	.LVL118:
 1375              	.L146:
 1376              		.loc 1 690 0
 1377 004c 2846     		mov	r0, r5
 1378 004e 07B0     		add	sp, sp, #28
 1379              		.cfi_def_cfa_offset 28
 1380              		@ sp needed
 1381 0050 BDE8F083 		pop	{r4, r5, r6, r7, r8, r9, pc}
 1382              	.LVL119:
 1383              	.L152:
 1384              		.align	2
 1385              	.L151:
 1386 0054 00000000 		.word	.LANCHOR0
 1387              		.cfi_endproc
 1388              	.LFE81:
 1389              		.size	vexIMEGetScratchpad, .-vexIMEGetScratchpad
 1390              		.section	.text.vexIMESetScratchpad,"ax",%progbits
 1391              		.align	2
 1392              		.p2align 4,,15
 1393              		.global	vexIMESetScratchpad
 1394              		.thumb
 1395              		.thumb_func
 1396              		.type	vexIMESetScratchpad, %function
 1397              	vexIMESetScratchpad:
 1398              	.LFB82:
 1399              		.loc 1 707 0
 1400              		.cfi_startproc
 1401              		@ args = 0, pretend = 0, frame = 0
 1402              		@ frame_needed = 0, uses_anonymous_args = 0
 1403              	.LVL120:
 1404 0000 2DE9F041 		push	{r4, r5, r6, r7, r8, lr}
 1405              		.cfi_def_cfa_offset 24
 1406              		.cfi_offset 4, -24
 1407              		.cfi_offset 5, -20
 1408              		.cfi_offset 6, -16
 1409              		.cfi_offset 7, -12
 1410              		.cfi_offset 8, -8
 1411              		.cfi_offset 14, -4
 1412 0004 0646     		mov	r6, r0
 1413              	.LVL121:
 1414 0006 84B0     		sub	sp, sp, #16
 1415              		.cfi_def_cfa_offset 40
 1416              		.loc 1 707 0
 1417 0008 0C46     		mov	r4, r1
 1418              		.loc 1 716 0
 1419 000a 0020     		movs	r0, #0
 1420              	.LVL122:
 1421 000c 4021     		movs	r1, #64
 1422              	.LVL123:
 1423              		.loc 1 707 0
 1424 000e 9046     		mov	r8, r2
 1425 0010 1F46     		mov	r7, r3
ARM GAS  /var/folders/vt/qg0v_q5n5k99pnp_yg24c7s80000gn/T//cc8PW4di.s 			page 26


 1426              		.loc 1 716 0
 1427 0012 FFF7FEFF 		bl	chHeapAlloc
 1428              	.LVL124:
 1429              		.loc 1 718 0
 1430 0016 0546     		mov	r5, r0
 1431 0018 A8B3     		cbz	r0, .L159
 1432              		.loc 1 720 0
 1433 001a A8F16008 		sub	r8, r8, #96
 1434 001e 80F80080 		strb	r8, [r0]
 1435              	.LVL125:
 1436              		.loc 1 721 0
 1437 0022 47B1     		cbz	r7, .L158
 1438 0024 0246     		mov	r2, r0
 1439 0026 611E     		subs	r1, r4, #1
 1440 0028 C419     		adds	r4, r0, r7
 1441              	.LVL126:
 1442              	.L157:
 1443              		.loc 1 722 0 discriminator 3
 1444 002a 11F8010F 		ldrb	r0, [r1, #1]!	@ zero_extendqisi2
 1445              	.LVL127:
 1446 002e 02F8010F 		strb	r0, [r2, #1]!
 1447              	.LVL128:
 1448              		.loc 1 721 0 discriminator 3
 1449 0032 A242     		cmp	r2, r4
 1450 0034 F9D1     		bne	.L157
 1451              	.LVL129:
 1452              	.L158:
 1453              		.loc 1 724 0
 1454 0036 164C     		ldr	r4, .L164
 1455 0038 2068     		ldr	r0, [r4]
 1456 003a FFF7FEFF 		bl	i2cAcquireBus
 1457              	.LVL130:
 1458              		.loc 1 725 0
 1459 003e 4FF0040E 		mov	lr, #4
 1460 0042 0022     		movs	r2, #0
 1461 0044 2068     		ldr	r0, [r4]
 1462 0046 7108     		lsrs	r1, r6, #1
 1463 0048 7B1C     		adds	r3, r7, #1
 1464 004a CDF808E0 		str	lr, [sp, #8]
 1465 004e 0192     		str	r2, [sp, #4]
 1466 0050 0092     		str	r2, [sp]
 1467 0052 2A46     		mov	r2, r5
 1468 0054 FFF7FEFF 		bl	i2cMasterTransmitTimeout
 1469              	.LVL131:
 1470 0058 0646     		mov	r6, r0
 1471              	.LVL132:
 1472              		.loc 1 726 0
 1473 005a 2068     		ldr	r0, [r4]
 1474              	.LVL133:
 1475 005c FFF7FEFF 		bl	i2cReleaseBus
 1476              	.LVL134:
 1477              		.loc 1 729 0
 1478 0060 2846     		mov	r0, r5
 1479 0062 FFF7FEFF 		bl	chHeapFree
 1480              	.LVL135:
 1481              		.loc 1 732 0
 1482 0066 1EB9     		cbnz	r6, .L163
ARM GAS  /var/folders/vt/qg0v_q5n5k99pnp_yg24c7s80000gn/T//cc8PW4di.s 			page 27


 1483              		.loc 1 738 0
 1484 0068 3046     		mov	r0, r6
 1485 006a 04B0     		add	sp, sp, #16
 1486              		.cfi_remember_state
 1487              		.cfi_def_cfa_offset 24
 1488              		@ sp needed
 1489 006c BDE8F081 		pop	{r4, r5, r6, r7, r8, pc}
 1490              	.LVL136:
 1491              	.L163:
 1492              		.cfi_restore_state
 1493              		.loc 1 733 0
 1494 0070 2068     		ldr	r0, [r4]
 1495 0072 FFF7FEFF 		bl	i2cGetErrors
 1496              	.LVL137:
 1497              		.loc 1 734 0
 1498 0076 0146     		mov	r1, r0
 1499 0078 3046     		mov	r0, r6
 1500 007a FFF7FEFF 		bl	vexIMEHandleErrors
 1501              	.LVL138:
 1502              		.loc 1 738 0
 1503 007e 3046     		mov	r0, r6
 1504 0080 04B0     		add	sp, sp, #16
 1505              		.cfi_remember_state
 1506              		.cfi_def_cfa_offset 24
 1507              		@ sp needed
 1508 0082 BDE8F081 		pop	{r4, r5, r6, r7, r8, pc}
 1509              	.LVL139:
 1510              	.L159:
 1511              		.cfi_restore_state
 1512              		.loc 1 708 0
 1513 0086 0646     		mov	r6, r0
 1514              		.loc 1 738 0
 1515 0088 3046     		mov	r0, r6
 1516              	.LVL140:
 1517 008a 04B0     		add	sp, sp, #16
 1518              		.cfi_def_cfa_offset 24
 1519              		@ sp needed
 1520 008c BDE8F081 		pop	{r4, r5, r6, r7, r8, pc}
 1521              	.LVL141:
 1522              	.L165:
 1523              		.align	2
 1524              	.L164:
 1525 0090 00000000 		.word	.LANCHOR0
 1526              		.cfi_endproc
 1527              	.LFE82:
 1528              		.size	vexIMESetScratchpad, .-vexIMESetScratchpad
 1529              		.section	.text.vexIMEClearCounters,"ax",%progbits
 1530              		.align	2
 1531              		.p2align 4,,15
 1532              		.global	vexIMEClearCounters
 1533              		.thumb
 1534              		.thumb_func
 1535              		.type	vexIMEClearCounters, %function
 1536              	vexIMEClearCounters:
 1537              	.LFB83:
 1538              		.loc 1 752 0
 1539              		.cfi_startproc
ARM GAS  /var/folders/vt/qg0v_q5n5k99pnp_yg24c7s80000gn/T//cc8PW4di.s 			page 28


 1540              		@ args = 0, pretend = 0, frame = 8
 1541              		@ frame_needed = 0, uses_anonymous_args = 0
 1542              	.LVL142:
 1543 0000 F0B5     		push	{r4, r5, r6, r7, lr}
 1544              		.cfi_def_cfa_offset 20
 1545              		.cfi_offset 4, -20
 1546              		.cfi_offset 5, -16
 1547              		.cfi_offset 6, -12
 1548              		.cfi_offset 7, -8
 1549              		.cfi_offset 14, -4
 1550 0002 0746     		mov	r7, r0
 1551              		.loc 1 756 0
 1552 0004 114C     		ldr	r4, .L172
 1553              		.loc 1 752 0
 1554 0006 87B0     		sub	sp, sp, #28
 1555              		.cfi_def_cfa_offset 48
 1556              		.loc 1 754 0
 1557 0008 06AD     		add	r5, sp, #24
 1558 000a 4A23     		movs	r3, #74
 1559              		.loc 1 756 0
 1560 000c 2068     		ldr	r0, [r4]
 1561              	.LVL143:
 1562              		.loc 1 754 0
 1563 000e 05F8013D 		strb	r3, [r5, #-1]!
 1564              		.loc 1 757 0
 1565 0012 0426     		movs	r6, #4
 1566              		.loc 1 756 0
 1567 0014 FFF7FEFF 		bl	i2cAcquireBus
 1568              	.LVL144:
 1569              		.loc 1 757 0
 1570 0018 0023     		movs	r3, #0
 1571 001a 2A46     		mov	r2, r5
 1572 001c 0193     		str	r3, [sp, #4]
 1573 001e 0093     		str	r3, [sp]
 1574 0020 2068     		ldr	r0, [r4]
 1575 0022 7908     		lsrs	r1, r7, #1
 1576 0024 0296     		str	r6, [sp, #8]
 1577 0026 0123     		movs	r3, #1
 1578 0028 FFF7FEFF 		bl	i2cMasterTransmitTimeout
 1579              	.LVL145:
 1580 002c 0546     		mov	r5, r0
 1581              	.LVL146:
 1582              		.loc 1 758 0
 1583 002e 2068     		ldr	r0, [r4]
 1584              	.LVL147:
 1585 0030 FFF7FEFF 		bl	i2cReleaseBus
 1586              	.LVL148:
 1587              		.loc 1 760 0
 1588 0034 35B1     		cbz	r5, .L167
 1589              		.loc 1 761 0
 1590 0036 2068     		ldr	r0, [r4]
 1591 0038 FFF7FEFF 		bl	i2cGetErrors
 1592              	.LVL149:
 1593              		.loc 1 762 0
 1594 003c 0146     		mov	r1, r0
 1595 003e 2846     		mov	r0, r5
 1596 0040 FFF7FEFF 		bl	vexIMEHandleErrors
ARM GAS  /var/folders/vt/qg0v_q5n5k99pnp_yg24c7s80000gn/T//cc8PW4di.s 			page 29


 1597              	.LVL150:
 1598              	.L167:
 1599              		.loc 1 766 0
 1600 0044 2846     		mov	r0, r5
 1601 0046 07B0     		add	sp, sp, #28
 1602              		.cfi_def_cfa_offset 20
 1603              		@ sp needed
 1604 0048 F0BD     		pop	{r4, r5, r6, r7, pc}
 1605              	.LVL151:
 1606              	.L173:
 1607 004a 00BF     		.align	2
 1608              	.L172:
 1609 004c 00000000 		.word	.LANCHOR0
 1610              		.cfi_endproc
 1611              	.LFE83:
 1612              		.size	vexIMEClearCounters, .-vexIMEClearCounters
 1613              		.section	.text.vexIMEDisableTermination,"ax",%progbits
 1614              		.align	2
 1615              		.p2align 4,,15
 1616              		.global	vexIMEDisableTermination
 1617              		.thumb
 1618              		.thumb_func
 1619              		.type	vexIMEDisableTermination, %function
 1620              	vexIMEDisableTermination:
 1621              	.LFB84:
 1622              		.loc 1 780 0
 1623              		.cfi_startproc
 1624              		@ args = 0, pretend = 0, frame = 8
 1625              		@ frame_needed = 0, uses_anonymous_args = 0
 1626              	.LVL152:
 1627 0000 F0B5     		push	{r4, r5, r6, r7, lr}
 1628              		.cfi_def_cfa_offset 20
 1629              		.cfi_offset 4, -20
 1630              		.cfi_offset 5, -16
 1631              		.cfi_offset 6, -12
 1632              		.cfi_offset 7, -8
 1633              		.cfi_offset 14, -4
 1634 0002 0746     		mov	r7, r0
 1635              		.loc 1 784 0
 1636 0004 114C     		ldr	r4, .L180
 1637              		.loc 1 780 0
 1638 0006 87B0     		sub	sp, sp, #28
 1639              		.cfi_def_cfa_offset 48
 1640              		.loc 1 782 0
 1641 0008 06AD     		add	r5, sp, #24
 1642 000a 4B23     		movs	r3, #75
 1643              		.loc 1 784 0
 1644 000c 2068     		ldr	r0, [r4]
 1645              	.LVL153:
 1646              		.loc 1 782 0
 1647 000e 05F8013D 		strb	r3, [r5, #-1]!
 1648              		.loc 1 785 0
 1649 0012 0426     		movs	r6, #4
 1650              		.loc 1 784 0
 1651 0014 FFF7FEFF 		bl	i2cAcquireBus
 1652              	.LVL154:
 1653              		.loc 1 785 0
ARM GAS  /var/folders/vt/qg0v_q5n5k99pnp_yg24c7s80000gn/T//cc8PW4di.s 			page 30


 1654 0018 0023     		movs	r3, #0
 1655 001a 2A46     		mov	r2, r5
 1656 001c 0193     		str	r3, [sp, #4]
 1657 001e 0093     		str	r3, [sp]
 1658 0020 2068     		ldr	r0, [r4]
 1659 0022 7908     		lsrs	r1, r7, #1
 1660 0024 0296     		str	r6, [sp, #8]
 1661 0026 0123     		movs	r3, #1
 1662 0028 FFF7FEFF 		bl	i2cMasterTransmitTimeout
 1663              	.LVL155:
 1664 002c 0546     		mov	r5, r0
 1665              	.LVL156:
 1666              		.loc 1 786 0
 1667 002e 2068     		ldr	r0, [r4]
 1668              	.LVL157:
 1669 0030 FFF7FEFF 		bl	i2cReleaseBus
 1670              	.LVL158:
 1671              		.loc 1 788 0
 1672 0034 35B1     		cbz	r5, .L175
 1673              		.loc 1 789 0
 1674 0036 2068     		ldr	r0, [r4]
 1675 0038 FFF7FEFF 		bl	i2cGetErrors
 1676              	.LVL159:
 1677              		.loc 1 790 0
 1678 003c 0146     		mov	r1, r0
 1679 003e 2846     		mov	r0, r5
 1680 0040 FFF7FEFF 		bl	vexIMEHandleErrors
 1681              	.LVL160:
 1682              	.L175:
 1683              		.loc 1 794 0
 1684 0044 2846     		mov	r0, r5
 1685 0046 07B0     		add	sp, sp, #28
 1686              		.cfi_def_cfa_offset 20
 1687              		@ sp needed
 1688 0048 F0BD     		pop	{r4, r5, r6, r7, pc}
 1689              	.LVL161:
 1690              	.L181:
 1691 004a 00BF     		.align	2
 1692              	.L180:
 1693 004c 00000000 		.word	.LANCHOR0
 1694              		.cfi_endproc
 1695              	.LFE84:
 1696              		.size	vexIMEDisableTermination, .-vexIMEDisableTermination
 1697              		.section	.text.vexIMEEnableTermination,"ax",%progbits
 1698              		.align	2
 1699              		.p2align 4,,15
 1700              		.global	vexIMEEnableTermination
 1701              		.thumb
 1702              		.thumb_func
 1703              		.type	vexIMEEnableTermination, %function
 1704              	vexIMEEnableTermination:
 1705              	.LFB85:
 1706              		.loc 1 808 0
 1707              		.cfi_startproc
 1708              		@ args = 0, pretend = 0, frame = 8
 1709              		@ frame_needed = 0, uses_anonymous_args = 0
 1710              	.LVL162:
ARM GAS  /var/folders/vt/qg0v_q5n5k99pnp_yg24c7s80000gn/T//cc8PW4di.s 			page 31


 1711 0000 F0B5     		push	{r4, r5, r6, r7, lr}
 1712              		.cfi_def_cfa_offset 20
 1713              		.cfi_offset 4, -20
 1714              		.cfi_offset 5, -16
 1715              		.cfi_offset 6, -12
 1716              		.cfi_offset 7, -8
 1717              		.cfi_offset 14, -4
 1718 0002 0746     		mov	r7, r0
 1719              		.loc 1 812 0
 1720 0004 114C     		ldr	r4, .L188
 1721              		.loc 1 808 0
 1722 0006 87B0     		sub	sp, sp, #28
 1723              		.cfi_def_cfa_offset 48
 1724              		.loc 1 810 0
 1725 0008 06AD     		add	r5, sp, #24
 1726 000a 4C23     		movs	r3, #76
 1727              		.loc 1 812 0
 1728 000c 2068     		ldr	r0, [r4]
 1729              	.LVL163:
 1730              		.loc 1 810 0
 1731 000e 05F8013D 		strb	r3, [r5, #-1]!
 1732              		.loc 1 813 0
 1733 0012 0426     		movs	r6, #4
 1734              		.loc 1 812 0
 1735 0014 FFF7FEFF 		bl	i2cAcquireBus
 1736              	.LVL164:
 1737              		.loc 1 813 0
 1738 0018 0023     		movs	r3, #0
 1739 001a 2A46     		mov	r2, r5
 1740 001c 0193     		str	r3, [sp, #4]
 1741 001e 0093     		str	r3, [sp]
 1742 0020 2068     		ldr	r0, [r4]
 1743 0022 7908     		lsrs	r1, r7, #1
 1744 0024 0296     		str	r6, [sp, #8]
 1745 0026 0123     		movs	r3, #1
 1746 0028 FFF7FEFF 		bl	i2cMasterTransmitTimeout
 1747              	.LVL165:
 1748 002c 0546     		mov	r5, r0
 1749              	.LVL166:
 1750              		.loc 1 814 0
 1751 002e 2068     		ldr	r0, [r4]
 1752              	.LVL167:
 1753 0030 FFF7FEFF 		bl	i2cReleaseBus
 1754              	.LVL168:
 1755              		.loc 1 816 0
 1756 0034 35B1     		cbz	r5, .L183
 1757              		.loc 1 817 0
 1758 0036 2068     		ldr	r0, [r4]
 1759 0038 FFF7FEFF 		bl	i2cGetErrors
 1760              	.LVL169:
 1761              		.loc 1 818 0
 1762 003c 0146     		mov	r1, r0
 1763 003e 2846     		mov	r0, r5
 1764 0040 FFF7FEFF 		bl	vexIMEHandleErrors
 1765              	.LVL170:
 1766              	.L183:
 1767              		.loc 1 822 0
ARM GAS  /var/folders/vt/qg0v_q5n5k99pnp_yg24c7s80000gn/T//cc8PW4di.s 			page 32


 1768 0044 2846     		mov	r0, r5
 1769 0046 07B0     		add	sp, sp, #28
 1770              		.cfi_def_cfa_offset 20
 1771              		@ sp needed
 1772 0048 F0BD     		pop	{r4, r5, r6, r7, pc}
 1773              	.LVL171:
 1774              	.L189:
 1775 004a 00BF     		.align	2
 1776              	.L188:
 1777 004c 00000000 		.word	.LANCHOR0
 1778              		.cfi_endproc
 1779              	.LFE85:
 1780              		.size	vexIMEEnableTermination, .-vexIMEEnableTermination
 1781              		.section	.text.vexIMESetAddr,"ax",%progbits
 1782              		.align	2
 1783              		.p2align 4,,15
 1784              		.global	vexIMESetAddr
 1785              		.thumb
 1786              		.thumb_func
 1787              		.type	vexIMESetAddr, %function
 1788              	vexIMESetAddr:
 1789              	.LFB86:
 1790              		.loc 1 837 0
 1791              		.cfi_startproc
 1792              		@ args = 0, pretend = 0, frame = 8
 1793              		@ frame_needed = 0, uses_anonymous_args = 0
 1794              	.LVL172:
 1795 0000 F0B5     		push	{r4, r5, r6, r7, lr}
 1796              		.cfi_def_cfa_offset 20
 1797              		.cfi_offset 4, -20
 1798              		.cfi_offset 5, -16
 1799              		.cfi_offset 6, -12
 1800              		.cfi_offset 7, -8
 1801              		.cfi_offset 14, -4
 1802 0002 0646     		mov	r6, r0
 1803              		.loc 1 846 0
 1804 0004 134C     		ldr	r4, .L196
 1805              		.loc 1 837 0
 1806 0006 87B0     		sub	sp, sp, #28
 1807              		.cfi_def_cfa_offset 48
 1808              		.loc 1 843 0
 1809 0008 4D23     		movs	r3, #77
 1810              		.loc 1 846 0
 1811 000a 2068     		ldr	r0, [r4]
 1812              	.LVL173:
 1813              		.loc 1 837 0
 1814 000c 0F46     		mov	r7, r1
 1815              		.loc 1 844 0
 1816 000e 8DF81510 		strb	r1, [sp, #21]
 1817              		.loc 1 843 0
 1818 0012 8DF81430 		strb	r3, [sp, #20]
 1819              		.loc 1 846 0
 1820 0016 FFF7FEFF 		bl	i2cAcquireBus
 1821              	.LVL174:
 1822              		.loc 1 847 0
 1823 001a 3178     		ldrb	r1, [r6]	@ zero_extendqisi2
 1824 001c 0023     		movs	r3, #0
ARM GAS  /var/folders/vt/qg0v_q5n5k99pnp_yg24c7s80000gn/T//cc8PW4di.s 			page 33


 1825 001e 0422     		movs	r2, #4
 1826 0020 0292     		str	r2, [sp, #8]
 1827 0022 0193     		str	r3, [sp, #4]
 1828 0024 0093     		str	r3, [sp]
 1829 0026 2068     		ldr	r0, [r4]
 1830 0028 4908     		lsrs	r1, r1, #1
 1831 002a 0223     		movs	r3, #2
 1832 002c 05AA     		add	r2, sp, #20
 1833 002e FFF7FEFF 		bl	i2cMasterTransmitTimeout
 1834              	.LVL175:
 1835 0032 0546     		mov	r5, r0
 1836              	.LVL176:
 1837              		.loc 1 848 0
 1838 0034 2068     		ldr	r0, [r4]
 1839              	.LVL177:
 1840 0036 FFF7FEFF 		bl	i2cReleaseBus
 1841              	.LVL178:
 1842              		.loc 1 850 0
 1843 003a 35B1     		cbz	r5, .L191
 1844              		.loc 1 851 0
 1845 003c 2068     		ldr	r0, [r4]
 1846 003e FFF7FEFF 		bl	i2cGetErrors
 1847              	.LVL179:
 1848              		.loc 1 852 0
 1849 0042 0146     		mov	r1, r0
 1850 0044 2846     		mov	r0, r5
 1851 0046 FFF7FEFF 		bl	vexIMEHandleErrors
 1852              	.LVL180:
 1853              	.L191:
 1854              		.loc 1 858 0
 1855 004a 2846     		mov	r0, r5
 1856              		.loc 1 855 0
 1857 004c 3770     		strb	r7, [r6]
 1858              		.loc 1 858 0
 1859 004e 07B0     		add	sp, sp, #28
 1860              		.cfi_def_cfa_offset 20
 1861              		@ sp needed
 1862 0050 F0BD     		pop	{r4, r5, r6, r7, pc}
 1863              	.LVL181:
 1864              	.L197:
 1865 0052 00BF     		.align	2
 1866              	.L196:
 1867 0054 00000000 		.word	.LANCHOR0
 1868              		.cfi_endproc
 1869              	.LFE86:
 1870              		.size	vexIMESetAddr, .-vexIMESetAddr
 1871              		.section	.text.vexIMEFindEncoders,"ax",%progbits
 1872              		.align	2
 1873              		.p2align 4,,15
 1874              		.global	vexIMEFindEncoders
 1875              		.thumb
 1876              		.thumb_func
 1877              		.type	vexIMEFindEncoders, %function
 1878              	vexIMEFindEncoders:
 1879              	.LFB75:
 1880              		.loc 1 428 0
 1881              		.cfi_startproc
ARM GAS  /var/folders/vt/qg0v_q5n5k99pnp_yg24c7s80000gn/T//cc8PW4di.s 			page 34


 1882              		@ args = 0, pretend = 0, frame = 0
 1883              		@ frame_needed = 0, uses_anonymous_args = 0
 1884              	.LVL182:
 1885 0000 2DE9F047 		push	{r4, r5, r6, r7, r8, r9, r10, lr}
 1886              		.cfi_def_cfa_offset 32
 1887              		.cfi_offset 4, -32
 1888              		.cfi_offset 5, -28
 1889              		.cfi_offset 6, -24
 1890              		.cfi_offset 7, -20
 1891              		.cfi_offset 8, -16
 1892              		.cfi_offset 9, -12
 1893              		.cfi_offset 10, -8
 1894              		.cfi_offset 14, -4
 1895              		.loc 1 433 0
 1896 0004 FFF7FEFF 		bl	vexIMEResetAll
 1897              	.LVL183:
 1898              		.loc 1 436 0
 1899 0008 0023     		movs	r3, #0
 1900              		.loc 1 439 0
 1901 000a 1E46     		mov	r6, r3
 1902              		.loc 1 490 0
 1903 000c 42F24869 		movw	r9, #9800
 1904              		.loc 1 487 0
 1905 0010 41F6E778 		movw	r8, #8167
 1906              		.loc 1 436 0
 1907 0014 3A4D     		ldr	r5, .L212
 1908              		.loc 1 438 0
 1909 0016 2022     		movs	r2, #32
 1910              		.loc 1 436 0
 1911 0018 2B81     		strh	r3, [r5, #8]	@ movhi
 1912              		.loc 1 437 0
 1913 001a EB82     		strh	r3, [r5, #22]	@ movhi
 1914              		.loc 1 439 0
 1915 001c 2B83     		strh	r3, [r5, #24]	@ movhi
 1916              		.loc 1 438 0
 1917 001e 6A81     		strh	r2, [r5, #10]	@ movhi
 1918 0020 05F12204 		add	r4, r5, #34
 1919              		.loc 1 460 0
 1920 0024 0127     		movs	r7, #1
 1921              	.LVL184:
 1922              	.L207:
 1923 0026 A4F1060A 		sub	r10, r4, #6
 1924              	.LVL185:
 1925              		.loc 1 446 0
 1926 002a 5046     		mov	r0, r10
 1927 002c FFF7FEFF 		bl	vexIMEDataInit
 1928              	.LVL186:
 1929              		.loc 1 450 0
 1930 0030 14F8060C 		ldrb	r0, [r4, #-6]	@ zero_extendqisi2
 1931 0034 FFF7FEFF 		bl	vexIMEEnableTermination
 1932              	.LVL187:
 1933 0038 0028     		cmp	r0, #0
 1934 003a 5AD1     		bne	.L199
 1935              		.loc 1 453 0
 1936 003c 2B89     		ldrh	r3, [r5, #8]
 1937              		.loc 1 456 0
 1938 003e A97A     		ldrb	r1, [r5, #10]	@ zero_extendqisi2
ARM GAS  /var/folders/vt/qg0v_q5n5k99pnp_yg24c7s80000gn/T//cc8PW4di.s 			page 35


 1939              		.loc 1 453 0
 1940 0040 0133     		adds	r3, r3, #1
 1941              		.loc 1 456 0
 1942 0042 5046     		mov	r0, r10
 1943              		.loc 1 453 0
 1944 0044 2B81     		strh	r3, [r5, #8]	@ movhi
 1945              		.loc 1 456 0
 1946 0046 FFF7FEFF 		bl	vexIMESetAddr
 1947              	.LVL188:
 1948              		.loc 1 457 0
 1949 004a 6B89     		ldrh	r3, [r5, #10]
 1950              		.loc 1 460 0
 1951 004c 0120     		movs	r0, #1
 1952              		.loc 1 457 0
 1953 004e 0233     		adds	r3, r3, #2
 1954 0050 6B81     		strh	r3, [r5, #10]	@ movhi
 1955              		.loc 1 460 0
 1956 0052 FFF7FEFF 		bl	chThdSleep
 1957              	.LVL189:
 1958              		.loc 1 463 0
 1959 0056 2146     		mov	r1, r4
 1960 0058 14F8060C 		ldrb	r0, [r4, #-6]	@ zero_extendqisi2
 1961 005c FFF7FEFF 		bl	vexIMEGetVersion
 1962              	.LVL190:
 1963              		.loc 1 464 0
 1964 0060 04F11001 		add	r1, r4, #16
 1965 0064 14F8060C 		ldrb	r0, [r4, #-6]	@ zero_extendqisi2
 1966 0068 FFF7FEFF 		bl	vexIMEGetVendor
 1967              	.LVL191:
 1968              		.loc 1 465 0
 1969 006c 04F12001 		add	r1, r4, #32
 1970 0070 14F8060C 		ldrb	r0, [r4, #-6]	@ zero_extendqisi2
 1971 0074 FFF7FEFF 		bl	vexIMEGetDeviceId
 1972              	.LVL192:
 1973              		.loc 1 468 0
 1974 0078 14F8060C 		ldrb	r0, [r4, #-6]	@ zero_extendqisi2
 1975 007c FFF7FEFF 		bl	vexIMEClearCounters
 1976              	.LVL193:
 1977              		.loc 1 475 0
 1978 0080 14F8053C 		ldrb	r3, [r4, #-5]	@ zero_extendqisi2
 1979 0084 032B     		cmp	r3, #3
 1980 0086 31D8     		bhi	.L200
 1981 0088 DFE803F0 		tbb	[pc, r3]
 1982              	.L202:
 1983 008c 26       		.byte	(.L201-.L202)/2
 1984 008d 2B       		.byte	(.L203-.L202)/2
 1985 008e 21       		.byte	(.L204-.L202)/2
 1986 008f 02       		.byte	(.L205-.L202)/2
 1987              		.p2align 1
 1988              	.L205:
 1989              		.loc 1 487 0
 1990 0090 C4F85A80 		str	r8, [r4, #90]
 1991              	.L206:
 1992              		.loc 1 498 0
 1993 0094 14F8060C 		ldrb	r0, [r4, #-6]	@ zero_extendqisi2
 1994              		.loc 1 495 0
 1995 0098 24F8047C 		strh	r7, [r4, #-4]	@ movhi
ARM GAS  /var/folders/vt/qg0v_q5n5k99pnp_yg24c7s80000gn/T//cc8PW4di.s 			page 36


 1996              		.loc 1 498 0
 1997 009c FFF7FEFF 		bl	vexIMEDisableTermination
 1998              	.LVL194:
 1999 00a0 0136     		adds	r6, r6, #1
 2000              	.LVL195:
 2001              		.loc 1 499 0
 2002 00a2 0120     		movs	r0, #1
 2003 00a4 FFF7FEFF 		bl	chThdSleep
 2004              	.LVL196:
 2005              		.loc 1 442 0
 2006 00a8 082E     		cmp	r6, #8
 2007 00aa 04F16C04 		add	r4, r4, #108
 2008 00ae BAD1     		bne	.L207
 2009              	.L208:
 2010              		.loc 1 510 0
 2011 00b0 2889     		ldrh	r0, [r5, #8]
 2012 00b2 134C     		ldr	r4, .L212
 2013 00b4 03B2     		sxth	r3, r0
 2014 00b6 002B     		cmp	r3, #0
 2015 00b8 07DD     		ble	.L209
 2016              		.loc 1 511 0
 2017 00ba 6C22     		movs	r2, #108
 2018 00bc 013B     		subs	r3, r3, #1
 2019 00be 02FB0343 		mla	r3, r2, r3, r4
 2020 00c2 187F     		ldrb	r0, [r3, #28]	@ zero_extendqisi2
 2021 00c4 FFF7FEFF 		bl	vexIMEEnableTermination
 2022              	.LVL197:
 2023 00c8 2089     		ldrh	r0, [r4, #8]
 2024              	.L209:
 2025              		.loc 1 514 0
 2026 00ca BDE8F087 		pop	{r4, r5, r6, r7, r8, r9, r10, pc}
 2027              	.LVL198:
 2028              	.L204:
 2029              		.loc 1 484 0
 2030 00ce 42F6DA73 		movw	r3, #12250
 2031 00d2 C4F85A30 		str	r3, [r4, #90]
 2032              		.loc 1 485 0
 2033 00d6 DDE7     		b	.L206
 2034              	.L201:
 2035              		.loc 1 478 0
 2036 00d8 41F65A53 		movw	r3, #7514
 2037 00dc C4F85A30 		str	r3, [r4, #90]
 2038              		.loc 1 479 0
 2039 00e0 D8E7     		b	.L206
 2040              	.L203:
 2041              		.loc 1 481 0
 2042 00e2 44F69043 		movw	r3, #19600
 2043 00e6 C4F85A30 		str	r3, [r4, #90]
 2044              		.loc 1 482 0
 2045 00ea D3E7     		b	.L206
 2046              	.L200:
 2047              		.loc 1 490 0
 2048 00ec C4F85A90 		str	r9, [r4, #90]
 2049              		.loc 1 491 0
 2050 00f0 D0E7     		b	.L206
 2051              	.L199:
 2052              		.loc 1 504 0
ARM GAS  /var/folders/vt/qg0v_q5n5k99pnp_yg24c7s80000gn/T//cc8PW4di.s 			page 37


 2053 00f2 6C23     		movs	r3, #108
 2054 00f4 03FB0656 		mla	r6, r3, r6, r5
 2055              	.LVL199:
 2056 00f8 0023     		movs	r3, #0
 2057 00fa 3377     		strb	r3, [r6, #28]
 2058              		.loc 1 505 0
 2059 00fc D8E7     		b	.L208
 2060              	.L213:
 2061 00fe 00BF     		.align	2
 2062              	.L212:
 2063 0100 00000000 		.word	.LANCHOR0
 2064              		.cfi_endproc
 2065              	.LFE75:
 2066              		.size	vexIMEFindEncoders, .-vexIMEFindEncoders
 2067              		.section	.text.vexIMEPrintBuf,"ax",%progbits
 2068              		.align	2
 2069              		.p2align 4,,15
 2070              		.global	vexIMEPrintBuf
 2071              		.thumb
 2072              		.thumb_func
 2073              		.type	vexIMEPrintBuf, %function
 2074              	vexIMEPrintBuf:
 2075              	.LFB89:
 2076              		.loc 1 952 0
 2077              		.cfi_startproc
 2078              		@ args = 0, pretend = 0, frame = 0
 2079              		@ frame_needed = 0, uses_anonymous_args = 0
 2080              	.LVL200:
 2081 0000 F8B5     		push	{r3, r4, r5, r6, r7, lr}
 2082              		.cfi_def_cfa_offset 24
 2083              		.cfi_offset 3, -24
 2084              		.cfi_offset 4, -20
 2085              		.cfi_offset 5, -16
 2086              		.cfi_offset 6, -12
 2087              		.cfi_offset 7, -8
 2088              		.cfi_offset 14, -4
 2089              		.loc 1 952 0
 2090 0002 0746     		mov	r7, r0
 2091              	.LVL201:
 2092              		.loc 1 955 0
 2093 0004 3AB3     		cbz	r2, .L215
 2094 0006 0C46     		mov	r4, r1
 2095 0008 0D46     		mov	r5, r1
 2096 000a 8E18     		adds	r6, r1, r2
 2097              	.LVL202:
 2098              	.L216:
 2099              		.loc 1 956 0 discriminator 3
 2100 000c 15F8012B 		ldrb	r2, [r5], #1	@ zero_extendqisi2
 2101              	.LVL203:
 2102 0010 1349     		ldr	r1, .L228
 2103 0012 3846     		mov	r0, r7
 2104 0014 FFF7FEFF 		bl	vex_chprintf
 2105              	.LVL204:
 2106              		.loc 1 955 0 discriminator 3
 2107 0018 B542     		cmp	r5, r6
 2108 001a F7D1     		bne	.L216
 2109              		.loc 1 958 0
ARM GAS  /var/folders/vt/qg0v_q5n5k99pnp_yg24c7s80000gn/T//cc8PW4di.s 			page 38


 2110 001c 1149     		ldr	r1, .L228+4
 2111 001e 3846     		mov	r0, r7
 2112 0020 FFF7FEFF 		bl	vex_chprintf
 2113              	.LVL205:
 2114 0024 04E0     		b	.L220
 2115              	.LVL206:
 2116              	.L227:
 2117              		.loc 1 963 0
 2118 0026 3846     		mov	r0, r7
 2119 0028 FFF7FEFF 		bl	vex_chprintf
 2120              	.LVL207:
 2121              		.loc 1 960 0
 2122 002c B442     		cmp	r4, r6
 2123 002e 0CD0     		beq	.L221
 2124              	.LVL208:
 2125              	.L220:
 2126              		.loc 1 962 0
 2127 0030 14F8012B 		ldrb	r2, [r4], #1	@ zero_extendqisi2
 2128              	.LVL209:
 2129              		.loc 1 963 0
 2130 0034 0C49     		ldr	r1, .L228+8
 2131              		.loc 1 962 0
 2132 0036 A2F12003 		sub	r3, r2, #32
 2133 003a 5E2B     		cmp	r3, #94
 2134 003c F3D9     		bls	.L227
 2135              		.loc 1 965 0
 2136 003e 0B49     		ldr	r1, .L228+12
 2137 0040 3846     		mov	r0, r7
 2138 0042 FFF7FEFF 		bl	vex_chprintf
 2139              	.LVL210:
 2140              		.loc 1 960 0
 2141 0046 B442     		cmp	r4, r6
 2142 0048 F2D1     		bne	.L220
 2143              	.LVL211:
 2144              	.L221:
 2145              		.loc 1 968 0
 2146 004a 3846     		mov	r0, r7
 2147              		.loc 1 969 0
 2148 004c BDE8F840 		pop	{r3, r4, r5, r6, r7, lr}
 2149              		.cfi_remember_state
 2150              		.cfi_restore 14
 2151              		.cfi_restore 7
 2152              		.cfi_restore 6
 2153              		.cfi_restore 5
 2154              		.cfi_restore 4
 2155              		.cfi_restore 3
 2156              		.cfi_def_cfa_offset 0
 2157              	.LVL212:
 2158              		.loc 1 968 0
 2159 0050 0749     		ldr	r1, .L228+16
 2160 0052 FFF7FEBF 		b	vex_chprintf
 2161              	.LVL213:
 2162              	.L215:
 2163              		.cfi_restore_state
 2164              		.loc 1 958 0
 2165 0056 0349     		ldr	r1, .L228+4
 2166              	.LVL214:
ARM GAS  /var/folders/vt/qg0v_q5n5k99pnp_yg24c7s80000gn/T//cc8PW4di.s 			page 39


 2167 0058 FFF7FEFF 		bl	vex_chprintf
 2168              	.LVL215:
 2169 005c F5E7     		b	.L221
 2170              	.L229:
 2171 005e 00BF     		.align	2
 2172              	.L228:
 2173 0060 00000000 		.word	.LC0
 2174 0064 14000000 		.word	.LC4
 2175 0068 08000000 		.word	.LC1
 2176 006c 0C000000 		.word	.LC2
 2177 0070 10000000 		.word	.LC3
 2178              		.cfi_endproc
 2179              	.LFE89:
 2180              		.size	vexIMEPrintBuf, .-vexIMEPrintBuf
 2181              		.section	.text.vexImeTask,"ax",%progbits
 2182              		.align	2
 2183              		.p2align 4,,15
 2184              		.thumb
 2185              		.thumb_func
 2186              		.type	vexImeTask, %function
 2187              	vexImeTask:
 2188              	.LFB71:
 2189              		.loc 1 244 0
 2190              		.cfi_startproc
 2191              		@ args = 0, pretend = 0, frame = 0
 2192              		@ frame_needed = 0, uses_anonymous_args = 0
 2193              	.LVL216:
 2194 0000 2DE9F041 		push	{r4, r5, r6, r7, r8, lr}
 2195              		.cfi_def_cfa_offset 24
 2196              		.cfi_offset 4, -24
 2197              		.cfi_offset 5, -20
 2198              		.cfi_offset 6, -16
 2199              		.cfi_offset 7, -12
 2200              		.cfi_offset 8, -8
 2201              		.cfi_offset 14, -4
 2202              		.loc 1 248 0
 2203 0004 DFF8FC80 		ldr	r8, .L249+32
 2204 0008 3649     		ldr	r1, .L249
 2205 000a D8F81830 		ldr	r3, [r8, #24]
 2206              		.loc 1 251 0
 2207 000e 364E     		ldr	r6, .L249+4
 2208              		.loc 1 248 0
 2209 0010 9961     		str	r1, [r3, #24]
 2210              		.loc 1 253 0
 2211 0012 5B7F     		ldrb	r3, [r3, #29]	@ zero_extendqisi2
 2212              		.loc 1 251 0
 2213 0014 0122     		movs	r2, #1
 2214              		.loc 1 253 0
 2215 0016 03F00403 		and	r3, r3, #4
 2216              		.loc 1 255 0
 2217 001a 3746     		mov	r7, r6
 2218              		.loc 1 251 0
 2219 001c 3283     		strh	r2, [r6, #24]	@ movhi
 2220              		.loc 1 253 0
 2221 001e 03F0FF04 		and	r4, r3, #255
 2222 0022 FBB9     		cbnz	r3, .L245
 2223              	.LVL217:
ARM GAS  /var/folders/vt/qg0v_q5n5k99pnp_yg24c7s80000gn/T//cc8PW4di.s 			page 40


 2224              	.L240:
 2225              		.loc 1 255 0
 2226 0024 338B     		ldrh	r3, [r6, #24]
 2227 0026 012B     		cmp	r3, #1
 2228 0028 1FD0     		beq	.L246
 2229              	.L244:
 2230 002a B7F90830 		ldrsh	r3, [r7, #8]
 2231              		.loc 1 280 0
 2232 002e 002B     		cmp	r3, #0
 2233 0030 50DD     		ble	.L235
 2234              	.L247:
 2235              	.LVL218:
 2236 0032 2E4D     		ldr	r5, .L249+8
 2237 0034 0024     		movs	r4, #0
 2238              	.LVL219:
 2239              	.L238:
 2240              		.loc 1 285 0
 2241 0036 2846     		mov	r0, r5
 2242 0038 FFF7FEFF 		bl	vexIMEUpdateCounts
 2243              	.LVL220:
 2244              		.loc 1 282 0
 2245 003c 0134     		adds	r4, r4, #1
 2246              	.LVL221:
 2247 003e 6C35     		adds	r5, r5, #108
 2248              		.loc 1 285 0
 2249 0040 00B9     		cbnz	r0, .L237
 2250              		.loc 1 286 0
 2251 0042 F082     		strh	r0, [r6, #22]	@ movhi
 2252              	.L237:
 2253              		.loc 1 289 0 discriminator 2
 2254 0044 0120     		movs	r0, #1
 2255 0046 FFF7FEFF 		bl	chThdSleep
 2256              	.LVL222:
 2257              		.loc 1 282 0 discriminator 2
 2258 004a B6F90830 		ldrsh	r3, [r6, #8]
 2259 004e A342     		cmp	r3, r4
 2260 0050 F1DC     		bgt	.L238
 2261 0052 D8F81830 		ldr	r3, [r8, #24]
 2262              	.LVL223:
 2263              	.L248:
 2264              		.loc 1 253 0
 2265 0056 5B7F     		ldrb	r3, [r3, #29]	@ zero_extendqisi2
 2266 0058 03F00403 		and	r3, r3, #4
 2267 005c 03F0FF04 		and	r4, r3, #255
 2268 0060 002B     		cmp	r3, #0
 2269 0062 DFD0     		beq	.L240
 2270              	.L245:
 2271              		.loc 1 302 0
 2272 0064 0020     		movs	r0, #0
 2273 0066 BDE8F081 		pop	{r4, r5, r6, r7, r8, pc}
 2274              	.L246:
 2275              		.loc 1 258 0
 2276 006a FFF7FEFF 		bl	vexIMEFindEncoders
 2277              	.LVL224:
 2278              		.loc 1 261 0
 2279 006e 7B8B     		ldrh	r3, [r7, #26]
 2280 0070 002B     		cmp	r3, #0
ARM GAS  /var/folders/vt/qg0v_q5n5k99pnp_yg24c7s80000gn/T//cc8PW4di.s 			page 41


 2281 0072 DAD0     		beq	.L244
 2282              	.LVL225:
 2283              		.loc 1 263 0 discriminator 1
 2284 0074 B7F90830 		ldrsh	r3, [r7, #8]
 2285 0078 002B     		cmp	r3, #0
 2286 007a 2BDD     		ble	.L235
 2287 007c 1C4D     		ldr	r5, .L249+12
 2288              	.LVL226:
 2289              	.L236:
 2290              		.loc 1 266 0 discriminator 3
 2291 007e 2246     		mov	r2, r4
 2292 0080 1C49     		ldr	r1, .L249+16
 2293 0082 7068     		ldr	r0, [r6, #4]
 2294 0084 FFF7FEFF 		bl	vex_chprintf
 2295              	.LVL227:
 2296              		.loc 1 267 0 discriminator 3
 2297 0088 1B49     		ldr	r1, .L249+20
 2298 008a 7068     		ldr	r0, [r6, #4]
 2299 008c FFF7FEFF 		bl	vex_chprintf
 2300              	.LVL228:
 2301              		.loc 1 268 0 discriminator 3
 2302 0090 0822     		movs	r2, #8
 2303 0092 2946     		mov	r1, r5
 2304 0094 7068     		ldr	r0, [r6, #4]
 2305 0096 FFF7FEFF 		bl	vexIMEPrintBuf
 2306              	.LVL229:
 2307              		.loc 1 270 0 discriminator 3
 2308 009a 1849     		ldr	r1, .L249+24
 2309 009c 7068     		ldr	r0, [r6, #4]
 2310 009e FFF7FEFF 		bl	vex_chprintf
 2311              	.LVL230:
 2312              		.loc 1 271 0 discriminator 3
 2313 00a2 0822     		movs	r2, #8
 2314 00a4 05F11001 		add	r1, r5, #16
 2315 00a8 7068     		ldr	r0, [r6, #4]
 2316 00aa FFF7FEFF 		bl	vexIMEPrintBuf
 2317              	.LVL231:
 2318              		.loc 1 273 0 discriminator 3
 2319 00ae 1449     		ldr	r1, .L249+28
 2320 00b0 7068     		ldr	r0, [r6, #4]
 2321 00b2 FFF7FEFF 		bl	vex_chprintf
 2322              	.LVL232:
 2323              		.loc 1 274 0 discriminator 3
 2324 00b6 05F12001 		add	r1, r5, #32
 2325 00ba 0822     		movs	r2, #8
 2326 00bc 7068     		ldr	r0, [r6, #4]
 2327 00be FFF7FEFF 		bl	vexIMEPrintBuf
 2328              	.LVL233:
 2329              		.loc 1 263 0 discriminator 3
 2330 00c2 B6F90830 		ldrsh	r3, [r6, #8]
 2331 00c6 0134     		adds	r4, r4, #1
 2332              	.LVL234:
 2333 00c8 A342     		cmp	r3, r4
 2334 00ca 05F16C05 		add	r5, r5, #108
 2335 00ce D6DC     		bgt	.L236
 2336              		.loc 1 280 0
 2337 00d0 002B     		cmp	r3, #0
ARM GAS  /var/folders/vt/qg0v_q5n5k99pnp_yg24c7s80000gn/T//cc8PW4di.s 			page 42


 2338 00d2 AEDC     		bgt	.L247
 2339              	.LVL235:
 2340              	.L235:
 2341              		.loc 1 295 0
 2342 00d4 0123     		movs	r3, #1
 2343              		.loc 1 297 0
 2344 00d6 0A20     		movs	r0, #10
 2345              		.loc 1 295 0
 2346 00d8 3383     		strh	r3, [r6, #24]	@ movhi
 2347              		.loc 1 297 0
 2348 00da FFF7FEFF 		bl	chThdSleep
 2349              	.LVL236:
 2350 00de D8F81830 		ldr	r3, [r8, #24]
 2351 00e2 B8E7     		b	.L248
 2352              	.L250:
 2353              		.align	2
 2354              	.L249:
 2355 00e4 18000000 		.word	.LC5
 2356 00e8 00000000 		.word	.LANCHOR0
 2357 00ec 1C000000 		.word	.LANCHOR0+28
 2358 00f0 22000000 		.word	.LANCHOR0+34
 2359 00f4 1C000000 		.word	.LC6
 2360 00f8 2C000000 		.word	.LC7
 2361 00fc 38000000 		.word	.LC8
 2362 0100 44000000 		.word	.LC9
 2363 0104 00000000 		.word	rlist
 2364              		.cfi_endproc
 2365              	.LFE71:
 2366              		.size	vexImeTask, .-vexImeTask
 2367              		.section	.text.vexIMEDebug,"ax",%progbits
 2368              		.align	2
 2369              		.p2align 4,,15
 2370              		.global	vexIMEDebug
 2371              		.thumb
 2372              		.thumb_func
 2373              		.type	vexIMEDebug, %function
 2374              	vexIMEDebug:
 2375              	.LFB90:
 2376              		.loc 1 980 0
 2377              		.cfi_startproc
 2378              		@ args = 0, pretend = 0, frame = 0
 2379              		@ frame_needed = 0, uses_anonymous_args = 0
 2380              	.LVL237:
 2381 0000 F0B5     		push	{r4, r5, r6, r7, lr}
 2382              		.cfi_def_cfa_offset 20
 2383              		.cfi_offset 4, -20
 2384              		.cfi_offset 5, -16
 2385              		.cfi_offset 6, -12
 2386              		.cfi_offset 7, -8
 2387              		.cfi_offset 14, -4
 2388 0002 0546     		mov	r5, r0
 2389              		.loc 1 986 0
 2390 0004 384F     		ldr	r7, .L264
 2391              		.loc 1 980 0
 2392 0006 85B0     		sub	sp, sp, #20
 2393              		.cfi_def_cfa_offset 40
 2394              		.loc 1 986 0
ARM GAS  /var/folders/vt/qg0v_q5n5k99pnp_yg24c7s80000gn/T//cc8PW4di.s 			page 43


 2395 0008 3849     		ldr	r1, .L264+4
 2396              	.LVL238:
 2397 000a B7F90820 		ldrsh	r2, [r7, #8]
 2398              	.LVL239:
 2399 000e FFF7FEFF 		bl	vex_chprintf
 2400              	.LVL240:
 2401              		.loc 1 987 0
 2402 0012 788A     		ldrh	r0, [r7, #18]
 2403 0014 398A     		ldrh	r1, [r7, #16]
 2404 0016 BC8A     		ldrh	r4, [r7, #20]
 2405 0018 FB89     		ldrh	r3, [r7, #14]
 2406 001a BA89     		ldrh	r2, [r7, #12]
 2407 001c 0190     		str	r0, [sp, #4]
 2408 001e 0091     		str	r1, [sp]
 2409 0020 0294     		str	r4, [sp, #8]
 2410 0022 2846     		mov	r0, r5
 2411 0024 3249     		ldr	r1, .L264+8
 2412 0026 FFF7FEFF 		bl	vex_chprintf
 2413              	.LVL241:
 2414              		.loc 1 990 0
 2415 002a B7F90830 		ldrsh	r3, [r7, #8]
 2416 002e 002B     		cmp	r3, #0
 2417 0030 43DD     		ble	.L251
 2418 0032 07F14204 		add	r4, r7, #66
 2419 0036 0026     		movs	r6, #0
 2420              	.LVL242:
 2421              	.L260:
 2422              		.loc 1 992 0
 2423 0038 0136     		adds	r6, r6, #1
 2424              	.LVL243:
 2425 003a 3246     		mov	r2, r6
 2426 003c 2D49     		ldr	r1, .L264+12
 2427 003e 2846     		mov	r0, r5
 2428 0040 FFF7FEFF 		bl	vex_chprintf
 2429              	.LVL244:
 2430              		.loc 1 994 0
 2431 0044 14F8253C 		ldrb	r3, [r4, #-37]	@ zero_extendqisi2
 2432 0048 032B     		cmp	r3, #3
 2433 004a 47D8     		bhi	.L253
 2434 004c DFE803F0 		tbb	[pc, r3]
 2435              	.L255:
 2436 0050 41       		.byte	(.L254-.L255)/2
 2437 0051 3C       		.byte	(.L256-.L255)/2
 2438 0052 37       		.byte	(.L257-.L255)/2
 2439 0053 02       		.byte	(.L258-.L255)/2
 2440              		.p2align 1
 2441              	.L258:
 2442              		.loc 1 1006 0
 2443 0054 2849     		ldr	r1, .L264+16
 2444 0056 2846     		mov	r0, r5
 2445 0058 FFF7FEFF 		bl	vex_chprintf
 2446              	.LVL245:
 2447              	.L259:
 2448              		.loc 1 1013 0 discriminator 2
 2449 005c 34F8223C 		ldrh	r3, [r4, #-34]
 2450 0060 2246     		mov	r2, r4
 2451 0062 0133     		adds	r3, r3, #1
ARM GAS  /var/folders/vt/qg0v_q5n5k99pnp_yg24c7s80000gn/T//cc8PW4di.s 			page 44


 2452 0064 2549     		ldr	r1, .L264+20
 2453 0066 2846     		mov	r0, r5
 2454 0068 FFF7FEFF 		bl	vex_chprintf
 2455              	.LVL246:
 2456              		.loc 1 1014 0 discriminator 2
 2457 006c D4F83E20 		ldr	r2, [r4, #62]
 2458 0070 2349     		ldr	r1, .L264+24
 2459 0072 2846     		mov	r0, r5
 2460 0074 FFF7FEFF 		bl	vex_chprintf
 2461              	.LVL247:
 2462              		.loc 1 1015 0 discriminator 2
 2463 0078 D4F84220 		ldr	r2, [r4, #66]
 2464 007c 2149     		ldr	r1, .L264+28
 2465 007e 2846     		mov	r0, r5
 2466 0080 FFF7FEFF 		bl	vex_chprintf
 2467              	.LVL248:
 2468              		.loc 1 1016 0 discriminator 2
 2469 0084 D4F82220 		ldr	r2, [r4, #34]
 2470 0088 1F49     		ldr	r1, .L264+32
 2471 008a 2846     		mov	r0, r5
 2472 008c FFF7FEFF 		bl	vex_chprintf
 2473              	.LVL249:
 2474              		.loc 1 1017 0 discriminator 2
 2475 0090 D4F82A20 		ldr	r2, [r4, #42]
 2476 0094 1D49     		ldr	r1, .L264+36
 2477 0096 2846     		mov	r0, r5
 2478 0098 FFF7FEFF 		bl	vex_chprintf
 2479              	.LVL250:
 2480              		.loc 1 1018 0 discriminator 2
 2481 009c D4F83220 		ldr	r2, [r4, #50]
 2482 00a0 1B49     		ldr	r1, .L264+40
 2483 00a2 2846     		mov	r0, r5
 2484 00a4 FFF7FEFF 		bl	vex_chprintf
 2485              	.LVL251:
 2486              		.loc 1 1019 0 discriminator 2
 2487 00a8 1A49     		ldr	r1, .L264+44
 2488 00aa 2846     		mov	r0, r5
 2489 00ac FFF7FEFF 		bl	vex_chprintf
 2490              	.LVL252:
 2491              		.loc 1 990 0 discriminator 2
 2492 00b0 B7F90830 		ldrsh	r3, [r7, #8]
 2493 00b4 6C34     		adds	r4, r4, #108
 2494 00b6 B342     		cmp	r3, r6
 2495 00b8 BEDC     		bgt	.L260
 2496              	.LVL253:
 2497              	.L251:
 2498              		.loc 1 1021 0
 2499 00ba 05B0     		add	sp, sp, #20
 2500              		.cfi_remember_state
 2501              		.cfi_def_cfa_offset 20
 2502              		@ sp needed
 2503 00bc F0BD     		pop	{r4, r5, r6, r7, pc}
 2504              	.LVL254:
 2505              	.L257:
 2506              		.cfi_restore_state
 2507              		.loc 1 1003 0
 2508 00be 1649     		ldr	r1, .L264+48
ARM GAS  /var/folders/vt/qg0v_q5n5k99pnp_yg24c7s80000gn/T//cc8PW4di.s 			page 45


 2509 00c0 2846     		mov	r0, r5
 2510 00c2 FFF7FEFF 		bl	vex_chprintf
 2511              	.LVL255:
 2512              		.loc 1 1004 0
 2513 00c6 C9E7     		b	.L259
 2514              	.L256:
 2515              		.loc 1 1000 0
 2516 00c8 1449     		ldr	r1, .L264+52
 2517 00ca 2846     		mov	r0, r5
 2518 00cc FFF7FEFF 		bl	vex_chprintf
 2519              	.LVL256:
 2520              		.loc 1 1001 0
 2521 00d0 C4E7     		b	.L259
 2522              	.L254:
 2523              		.loc 1 997 0
 2524 00d2 1349     		ldr	r1, .L264+56
 2525 00d4 2846     		mov	r0, r5
 2526 00d6 FFF7FEFF 		bl	vex_chprintf
 2527              	.LVL257:
 2528              		.loc 1 998 0
 2529 00da BFE7     		b	.L259
 2530              	.L253:
 2531              		.loc 1 1009 0
 2532 00dc 1149     		ldr	r1, .L264+60
 2533 00de 2846     		mov	r0, r5
 2534 00e0 FFF7FEFF 		bl	vex_chprintf
 2535              	.LVL258:
 2536              		.loc 1 1010 0
 2537 00e4 BAE7     		b	.L259
 2538              	.L265:
 2539 00e6 00BF     		.align	2
 2540              	.L264:
 2541 00e8 00000000 		.word	.LANCHOR0
 2542 00ec 50000000 		.word	.LC10
 2543 00f0 64000000 		.word	.LC11
 2544 00f4 98000000 		.word	.LC12
 2545 00f8 B8000000 		.word	.LC16
 2546 00fc C8000000 		.word	.LC18
 2547 0100 D8000000 		.word	.LC19
 2548 0104 E0000000 		.word	.LC20
 2549 0108 E8000000 		.word	.LC21
 2550 010c F4000000 		.word	.LC22
 2551 0110 00010000 		.word	.LC23
 2552 0114 10000000 		.word	.LC3
 2553 0118 B0000000 		.word	.LC15
 2554 011c A8000000 		.word	.LC14
 2555 0120 A0000000 		.word	.LC13
 2556 0124 C0000000 		.word	.LC17
 2557              		.cfi_endproc
 2558              	.LFE90:
 2559              		.size	vexIMEDebug, .-vexIMEDebug
 2560              		.section	.bss.waVexImeTask,"aw",%nobits
 2561              		.align	3
 2562              		.set	.LANCHOR2,. + 0
 2563              		.type	waVexImeTask, %object
 2564              		.size	waVexImeTask, 640
 2565              	waVexImeTask:
ARM GAS  /var/folders/vt/qg0v_q5n5k99pnp_yg24c7s80000gn/T//cc8PW4di.s 			page 46


 2566 0000 00000000 		.space	640
 2566      00000000 
 2566      00000000 
 2566      00000000 
 2566      00000000 
 2567              		.section	.rodata.str1.4,"aMS",%progbits,1
 2568              		.align	2
 2569              	.LC0:
 2570 0000 25303258 		.ascii	"%02X \000"
 2570      2000
 2571 0006 0000     		.space	2
 2572              	.LC1:
 2573 0008 256300   		.ascii	"%c\000"
 2574 000b 00       		.space	1
 2575              	.LC2:
 2576 000c 2E00     		.ascii	".\000"
 2577 000e 0000     		.space	2
 2578              	.LC3:
 2579 0010 0D0A00   		.ascii	"\015\012\000"
 2580 0013 00       		.space	1
 2581              	.LC4:
 2582 0014 3A2000   		.ascii	": \000"
 2583 0017 00       		.space	1
 2584              	.LC5:
 2585 0018 696D6500 		.ascii	"ime\000"
 2586              	.LC6:
 2587 001c 456E636F 		.ascii	"Encoder:%d\015\012\000"
 2587      6465723A 
 2587      25640D0A 
 2587      00
 2588 0029 000000   		.space	3
 2589              	.LC7:
 2590 002c 56657273 		.ascii	"Version:   \000"
 2590      696F6E3A 
 2590      20202000 
 2591              	.LC8:
 2592 0038 56656E64 		.ascii	"Vendor:    \000"
 2592      6F723A20 
 2592      20202000 
 2593              	.LC9:
 2594 0044 44657669 		.ascii	"Device ID: \000"
 2594      63652049 
 2594      443A2000 
 2595              	.LC10:
 2596 0050 25642049 		.ascii	"%d IME's found\015\012\000"
 2596      4D452773 
 2596      20666F75 
 2596      6E640D0A 
 2596      00
 2597 0061 000000   		.space	3
 2598              	.LC11:
 2599 0064 4572726F 		.ascii	"Errors Lock(%d) Ack(%d) Bus(%d) Arb(%d) Tim(%d)\015"
 2599      7273204C 
 2599      6F636B28 
 2599      25642920 
 2599      41636B28 
 2600 0094 0A00     		.ascii	"\012\000"
ARM GAS  /var/folders/vt/qg0v_q5n5k99pnp_yg24c7s80000gn/T//cc8PW4di.s 			page 47


 2601 0096 0000     		.space	2
 2602              	.LC12:
 2603 0098 494D455F 		.ascii	"IME_%d \000"
 2603      25642000 
 2604              	.LC13:
 2605 00a0 32363920 		.ascii	"269  \000"
 2605      2000
 2606 00a6 0000     		.space	2
 2607              	.LC14:
 2608 00a8 33393354 		.ascii	"393T \000"
 2608      2000
 2609 00ae 0000     		.space	2
 2610              	.LC15:
 2611 00b0 33393353 		.ascii	"393S \000"
 2611      2000
 2612 00b6 0000     		.space	2
 2613              	.LC16:
 2614 00b8 33393352 		.ascii	"393R \000"
 2614      2000
 2615 00be 0000     		.space	2
 2616              	.LC17:
 2617 00c0 2D2D2D2D 		.ascii	"---- \000"
 2617      2000
 2618 00c6 0000     		.space	2
 2619              	.LC18:
 2620 00c8 28252D38 		.ascii	"(%-8s) M_%-2d \000"
 2620      7329204D 
 2620      5F252D32 
 2620      642000
 2621 00d7 00       		.space	1
 2622              	.LC19:
 2623 00d8 2538642F 		.ascii	"%8d/\000"
 2623      00
 2624 00dd 000000   		.space	3
 2625              	.LC20:
 2626 00e0 252D3564 		.ascii	"%-5d \000"
 2626      2000
 2627 00e6 0000     		.space	2
 2628              	.LC21:
 2629 00e8 636F756E 		.ascii	"count %6d \000"
 2629      74202536 
 2629      642000
 2630 00f3 00       		.space	1
 2631              	.LC22:
 2632 00f4 76656C20 		.ascii	"vel   %5d \000"
 2632      20202535 
 2632      642000
 2633 00ff 00       		.space	1
 2634              	.LC23:
 2635 0100 72706D20 		.ascii	"rpm   %3d \000"
 2635      20202533 
 2635      642000
 2636              		.section	.rodata.imeI2cConfig,"a",%progbits
 2637              		.align	2
 2638              		.set	.LANCHOR1,. + 0
 2639              		.type	imeI2cConfig, %object
 2640              		.size	imeI2cConfig, 12
ARM GAS  /var/folders/vt/qg0v_q5n5k99pnp_yg24c7s80000gn/T//cc8PW4di.s 			page 48


 2641              	imeI2cConfig:
 2642 0000 01       		.byte	1
 2643 0001 000000   		.space	3
 2644 0004 A0860100 		.word	100000
 2645 0008 02       		.byte	2
 2646 0009 000000   		.space	3
 2647              		.section	.bss.vexImes,"aw",%nobits
 2648              		.align	2
 2649              		.set	.LANCHOR0,. + 0
 2650              		.type	vexImes, %object
 2651              		.size	vexImes, 892
 2652              	vexImes:
 2653 0000 00000000 		.space	892
 2653      00000000 
 2653      00000000 
 2653      00000000 
 2653      00000000 
 2654              		.text
 2655              	.Letext0:
 2656              		.file 2 "/usr/local/gcc-arm-none-eabi-5_2-2015q4/arm-none-eabi/include/machine/_default_types.h"
 2657              		.file 3 "/usr/local/gcc-arm-none-eabi-5_2-2015q4/lib/gcc/arm-none-eabi/5.2.1/include/stddef.h"
 2658              		.file 4 "/usr/local/gcc-arm-none-eabi-5_2-2015q4/arm-none-eabi/include/sys/_stdint.h"
 2659              		.file 5 "../../ChibiOS/os/ports/GCC/ARMCMx/chtypes.h"
 2660              		.file 6 "../../ChibiOS/os/kernel/include/chlists.h"
 2661              		.file 7 "../../ChibiOS/os/kernel/include/chthreads.h"
 2662              		.file 8 "../../ChibiOS/os/ports/GCC/ARMCMx/chcore_v7m.h"
 2663              		.file 9 "../../ChibiOS/os/kernel/include/chschd.h"
 2664              		.file 10 "../../ChibiOS/os/kernel/include/chmtx.h"
 2665              		.file 11 "../../ChibiOS/os/kernel/include/chstreams.h"
 2666              		.file 12 "../../ChibiOS/os/hal/platforms/STM32F1xx/stm32f10x.h"
 2667              		.file 13 "../../ChibiOS/os/hal/platforms/STM32F1xx/stm32_dma.h"
 2668              		.file 14 "../../ChibiOS/os/hal/include/i2c.h"
 2669              		.file 15 "../../ChibiOS/os/hal/platforms/STM32/I2Cv1/i2c_lld.h"
 2670              		.file 16 "../../convex/convex/cortex/fw/vexcompat.h"
 2671              		.file 17 "../../convex/convex/cortex/fw/vexdigital.h"
 2672              		.file 18 "../../convex/convex/cortex/fw/vexmotor.h"
 2673              		.file 19 "../../convex/convex/cortex/fw/vexime.h"
 2674              		.file 20 "../../ChibiOS/os/ports/common/ARMCMx/CMSIS/include/core_cm3.h"
 2675              		.file 21 "../../ChibiOS/os/kernel/include/chheap.h"
 2676              		.file 22 "../../convex/convex/cortex/fw/vexprintf.h"