ARM GAS  /var/folders/vt/qg0v_q5n5k99pnp_yg24c7s80000gn/T//ccE8gQvX.s 			page 1


   1              		.syntax unified
   2              		.cpu cortex-m3
   3              		.fpu softvfp
   4              		.eabi_attribute 20, 1
   5              		.eabi_attribute 21, 1
   6              		.eabi_attribute 23, 3
   7              		.eabi_attribute 24, 1
   8              		.eabi_attribute 25, 1
   9              		.eabi_attribute 26, 1
  10              		.eabi_attribute 30, 2
  11              		.eabi_attribute 34, 1
  12              		.eabi_attribute 18, 4
  13              		.thumb
  14              		.syntax unified
  15              		.file	"vexmotor.c"
  16              		.text
  17              	.Ltext0:
  18              		.cfi_sections	.debug_frame
  19              		.section	.text.vexMotorPositionGet.part.1,"ax",%progbits
  20              		.align	2
  21              		.p2align 4,,15
  22              		.thumb
  23              		.thumb_func
  24              		.type	vexMotorPositionGet.part.1, %function
  25              	vexMotorPositionGet.part.1:
  26              	.LFB83:
  27              		.file 1 "../../convex/convex/cortex/fw/vexmotor.c"
  28              		.loc 1 247 0
  29              		.cfi_startproc
  30              		@ args = 0, pretend = 0, frame = 0
  31              		@ frame_needed = 0, uses_anonymous_args = 0
  32              	.LVL0:
  33 0000 F8B5     		push	{r3, r4, r5, r6, r7, lr}
  34              		.cfi_def_cfa_offset 24
  35              		.cfi_offset 3, -24
  36              		.cfi_offset 4, -20
  37              		.cfi_offset 5, -16
  38              		.cfi_offset 6, -12
  39              		.cfi_offset 7, -8
  40              		.cfi_offset 14, -4
  41              		.loc 1 254 0
  42 0002 0C4E     		ldr	r6, .L8
  43 0004 8700     		lsls	r7, r0, #2
  44 0006 3D18     		adds	r5, r7, r0
  45 0008 06EB8505 		add	r5, r6, r5, lsl #2
  46 000c 6B68     		ldr	r3, [r5, #4]
  47 000e 73B1     		cbz	r3, .L4
  48 0010 0446     		mov	r4, r0
  49              		.loc 1 256 0
  50 0012 B5F91000 		ldrsh	r0, [r5, #16]
  51              	.LVL1:
  52 0016 9847     		blx	r3
  53              	.LVL2:
  54              		.loc 1 262 0
  55 0018 3C44     		add	r4, r4, r7
  56              		.loc 1 259 0
  57 001a AB78     		ldrb	r3, [r5, #2]	@ zero_extendqisi2
ARM GAS  /var/folders/vt/qg0v_q5n5k99pnp_yg24c7s80000gn/T//ccE8gQvX.s 			page 2


  58              		.loc 1 262 0
  59 001c 06EB8404 		add	r4, r6, r4, lsl #2
  60              		.loc 1 259 0
  61 0020 012B     		cmp	r3, #1
  62              		.loc 1 262 0
  63 0022 E378     		ldrb	r3, [r4, #3]	@ zero_extendqisi2
  64              		.loc 1 260 0
  65 0024 08BF     		it	eq
  66 0026 4042     		rsbeq	r0, r0, #0
  67              	.LVL3:
  68              		.loc 1 262 0
  69 0028 13B1     		cbz	r3, .L2
  70              		.loc 1 265 0
  71 002a 4042     		negs	r0, r0
  72              	.LVL4:
  73 002c F8BD     		pop	{r3, r4, r5, r6, r7, pc}
  74              	.LVL5:
  75              	.L4:
  76              		.loc 1 268 0
  77 002e 1846     		mov	r0, r3
  78              	.LVL6:
  79              	.L2:
  80              		.loc 1 269 0
  81 0030 F8BD     		pop	{r3, r4, r5, r6, r7, pc}
  82              	.L9:
  83 0032 00BF     		.align	2
  84              	.L8:
  85 0034 00000000 		.word	.LANCHOR0
  86              		.cfi_endproc
  87              	.LFE83:
  88              		.size	vexMotorPositionGet.part.1, .-vexMotorPositionGet.part.1
  89              		.section	.text.vexMotorSet,"ax",%progbits
  90              		.align	2
  91              		.p2align 4,,15
  92              		.global	vexMotorSet
  93              		.thumb
  94              		.thumb_func
  95              		.type	vexMotorSet, %function
  96              	vexMotorSet:
  97              	.LFB64:
  98              		.loc 1 108 0
  99              		.cfi_startproc
 100              		@ args = 0, pretend = 0, frame = 0
 101              		@ frame_needed = 0, uses_anonymous_args = 0
 102              		@ link register save eliminated.
 103              	.LVL7:
 104              		.loc 1 109 0
 105 0000 83B2     		uxth	r3, r0
 106 0002 092B     		cmp	r3, #9
 107 0004 0CD8     		bhi	.L10
 108              	.LVL8:
 109 0006 6FF07E03 		mvn	r3, #126
 110 000a 9942     		cmp	r1, r3
 111 000c B8BF     		it	lt
 112 000e 1946     		movlt	r1, r3
 113              	.LVL9:
 114              	.LBB26:
ARM GAS  /var/folders/vt/qg0v_q5n5k99pnp_yg24c7s80000gn/T//ccE8gQvX.s 			page 3


 115              	.LBB27:
 116              		.loc 1 120 0
 117 0010 00EB8000 		add	r0, r0, r0, lsl #2
 118              	.LVL10:
 119 0014 7F29     		cmp	r1, #127
 120 0016 034B     		ldr	r3, .L12
 121 0018 A8BF     		it	ge
 122 001a 7F21     		movge	r1, #127
 123              	.LVL11:
 124 001c 8000     		lsls	r0, r0, #2
 125 001e 1952     		strh	r1, [r3, r0]	@ movhi
 126              	.LVL12:
 127              	.L10:
 128 0020 7047     		bx	lr
 129              	.L13:
 130 0022 00BF     		.align	2
 131              	.L12:
 132 0024 00000000 		.word	.LANCHOR0
 133              	.LBE27:
 134              	.LBE26:
 135              		.cfi_endproc
 136              	.LFE64:
 137              		.size	vexMotorSet, .-vexMotorSet
 138              		.section	.text.vexMotorGet,"ax",%progbits
 139              		.align	2
 140              		.p2align 4,,15
 141              		.global	vexMotorGet
 142              		.thumb
 143              		.thumb_func
 144              		.type	vexMotorGet, %function
 145              	vexMotorGet:
 146              	.LFB65:
 147              		.loc 1 131 0
 148              		.cfi_startproc
 149              		@ args = 0, pretend = 0, frame = 0
 150              		@ frame_needed = 0, uses_anonymous_args = 0
 151              		@ link register save eliminated.
 152              	.LVL13:
 153              		.loc 1 132 0
 154 0000 83B2     		uxth	r3, r0
 155 0002 092B     		cmp	r3, #9
 156 0004 07D8     		bhi	.L16
 157              		.loc 1 135 0
 158 0006 054B     		ldr	r3, .L17
 159 0008 00EB8000 		add	r0, r0, r0, lsl #2
 160              	.LVL14:
 161 000c 8000     		lsls	r0, r0, #2
 162 000e 185A     		ldrh	r0, [r3, r0]
 163 0010 80B2     		uxth	r0, r0
 164              		.loc 1 136 0
 165 0012 00B2     		sxth	r0, r0
 166 0014 7047     		bx	lr
 167              	.LVL15:
 168              	.L16:
 169              		.loc 1 133 0
 170 0016 0020     		movs	r0, #0
 171              	.LVL16:
ARM GAS  /var/folders/vt/qg0v_q5n5k99pnp_yg24c7s80000gn/T//ccE8gQvX.s 			page 4


 172              		.loc 1 136 0
 173 0018 00B2     		sxth	r0, r0
 174 001a 7047     		bx	lr
 175              	.L18:
 176              		.align	2
 177              	.L17:
 178 001c 00000000 		.word	.LANCHOR0
 179              		.cfi_endproc
 180              	.LFE65:
 181              		.size	vexMotorGet, .-vexMotorGet
 182              		.section	.text.vexMotorStopAll,"ax",%progbits
 183              		.align	2
 184              		.p2align 4,,15
 185              		.global	vexMotorStopAll
 186              		.thumb
 187              		.thumb_func
 188              		.type	vexMotorStopAll, %function
 189              	vexMotorStopAll:
 190              	.LFB66:
 191              		.loc 1 144 0
 192              		.cfi_startproc
 193              		@ args = 0, pretend = 0, frame = 0
 194              		@ frame_needed = 0, uses_anonymous_args = 0
 195              		@ link register save eliminated.
 196              	.LVL17:
 197              		.loc 1 144 0
 198 0000 0023     		movs	r3, #0
 199              	.LBB32:
 200              	.LBB33:
 201              	.LBB34:
 202              		.loc 1 120 0
 203 0002 1846     		mov	r0, r3
 204 0004 0449     		ldr	r1, .L22
 205              	.LVL18:
 206              	.L20:
 207 0006 03EB8302 		add	r2, r3, r3, lsl #2
 208 000a 0133     		adds	r3, r3, #1
 209              	.LVL19:
 210              	.LBE34:
 211              	.LBE33:
 212              	.LBE32:
 213              		.loc 1 147 0
 214 000c 0A2B     		cmp	r3, #10
 215              	.LBB37:
 216              	.LBB36:
 217              	.LBB35:
 218              		.loc 1 120 0
 219 000e 21F82200 		strh	r0, [r1, r2, lsl #2]	@ movhi
 220              	.LVL20:
 221              	.LBE35:
 222              	.LBE36:
 223              	.LBE37:
 224              		.loc 1 147 0
 225 0012 F8D1     		bne	.L20
 226              		.loc 1 149 0
 227 0014 7047     		bx	lr
 228              	.L23:
ARM GAS  /var/folders/vt/qg0v_q5n5k99pnp_yg24c7s80000gn/T//ccE8gQvX.s 			page 5


 229 0016 00BF     		.align	2
 230              	.L22:
 231 0018 00000000 		.word	.LANCHOR0
 232              		.cfi_endproc
 233              	.LFE66:
 234              		.size	vexMotorStopAll, .-vexMotorStopAll
 235              		.section	.text.vexMotorTypeSet,"ax",%progbits
 236              		.align	2
 237              		.p2align 4,,15
 238              		.global	vexMotorTypeSet
 239              		.thumb
 240              		.thumb_func
 241              		.type	vexMotorTypeSet, %function
 242              	vexMotorTypeSet:
 243              	.LFB67:
 244              		.loc 1 159 0
 245              		.cfi_startproc
 246              		@ args = 0, pretend = 0, frame = 0
 247              		@ frame_needed = 0, uses_anonymous_args = 0
 248              		@ link register save eliminated.
 249              	.LVL21:
 250              		.loc 1 160 0
 251 0000 83B2     		uxth	r3, r0
 252 0002 092B     		cmp	r3, #9
 253 0004 05D8     		bhi	.L24
 254              		.loc 1 163 0
 255 0006 034B     		ldr	r3, .L26
 256 0008 00EB8000 		add	r0, r0, r0, lsl #2
 257              	.LVL22:
 258 000c 03EB8000 		add	r0, r3, r0, lsl #2
 259 0010 8170     		strb	r1, [r0, #2]
 260              	.L24:
 261 0012 7047     		bx	lr
 262              	.L27:
 263              		.align	2
 264              	.L26:
 265 0014 00000000 		.word	.LANCHOR0
 266              		.cfi_endproc
 267              	.LFE67:
 268              		.size	vexMotorTypeSet, .-vexMotorTypeSet
 269              		.section	.text.vexMotorTypeGet,"ax",%progbits
 270              		.align	2
 271              		.p2align 4,,15
 272              		.global	vexMotorTypeGet
 273              		.thumb
 274              		.thumb_func
 275              		.type	vexMotorTypeGet, %function
 276              	vexMotorTypeGet:
 277              	.LFB68:
 278              		.loc 1 174 0
 279              		.cfi_startproc
 280              		@ args = 0, pretend = 0, frame = 0
 281              		@ frame_needed = 0, uses_anonymous_args = 0
 282              		@ link register save eliminated.
 283              	.LVL23:
 284              		.loc 1 175 0
 285 0000 83B2     		uxth	r3, r0
ARM GAS  /var/folders/vt/qg0v_q5n5k99pnp_yg24c7s80000gn/T//ccE8gQvX.s 			page 6


 286 0002 092B     		cmp	r3, #9
 287 0004 06D8     		bhi	.L30
 288              		.loc 1 178 0
 289 0006 044B     		ldr	r3, .L31
 290 0008 00EB8000 		add	r0, r0, r0, lsl #2
 291              	.LVL24:
 292 000c 03EB8000 		add	r0, r3, r0, lsl #2
 293 0010 8078     		ldrb	r0, [r0, #2]	@ zero_extendqisi2
 294 0012 7047     		bx	lr
 295              	.LVL25:
 296              	.L30:
 297              		.loc 1 176 0
 298 0014 0020     		movs	r0, #0
 299              	.LVL26:
 300              		.loc 1 179 0
 301 0016 7047     		bx	lr
 302              	.L32:
 303              		.align	2
 304              	.L31:
 305 0018 00000000 		.word	.LANCHOR0
 306              		.cfi_endproc
 307              	.LFE68:
 308              		.size	vexMotorTypeGet, .-vexMotorTypeGet
 309              		.section	.text.vexMotorDirectionSet,"ax",%progbits
 310              		.align	2
 311              		.p2align 4,,15
 312              		.global	vexMotorDirectionSet
 313              		.thumb
 314              		.thumb_func
 315              		.type	vexMotorDirectionSet, %function
 316              	vexMotorDirectionSet:
 317              	.LFB69:
 318              		.loc 1 189 0
 319              		.cfi_startproc
 320              		@ args = 0, pretend = 0, frame = 0
 321              		@ frame_needed = 0, uses_anonymous_args = 0
 322              		@ link register save eliminated.
 323              	.LVL27:
 324              		.loc 1 190 0
 325 0000 83B2     		uxth	r3, r0
 326 0002 092B     		cmp	r3, #9
 327 0004 05D8     		bhi	.L33
 328              		.loc 1 193 0
 329 0006 034B     		ldr	r3, .L35
 330 0008 00EB8000 		add	r0, r0, r0, lsl #2
 331              	.LVL28:
 332 000c 03EB8000 		add	r0, r3, r0, lsl #2
 333 0010 C170     		strb	r1, [r0, #3]
 334              	.L33:
 335 0012 7047     		bx	lr
 336              	.L36:
 337              		.align	2
 338              	.L35:
 339 0014 00000000 		.word	.LANCHOR0
 340              		.cfi_endproc
 341              	.LFE69:
 342              		.size	vexMotorDirectionSet, .-vexMotorDirectionSet
ARM GAS  /var/folders/vt/qg0v_q5n5k99pnp_yg24c7s80000gn/T//ccE8gQvX.s 			page 7


 343              		.section	.text.vexMotorDirectionGet,"ax",%progbits
 344              		.align	2
 345              		.p2align 4,,15
 346              		.global	vexMotorDirectionGet
 347              		.thumb
 348              		.thumb_func
 349              		.type	vexMotorDirectionGet, %function
 350              	vexMotorDirectionGet:
 351              	.LFB70:
 352              		.loc 1 204 0
 353              		.cfi_startproc
 354              		@ args = 0, pretend = 0, frame = 0
 355              		@ frame_needed = 0, uses_anonymous_args = 0
 356              		@ link register save eliminated.
 357              	.LVL29:
 358              		.loc 1 205 0
 359 0000 83B2     		uxth	r3, r0
 360 0002 092B     		cmp	r3, #9
 361 0004 06D8     		bhi	.L39
 362              		.loc 1 208 0
 363 0006 044B     		ldr	r3, .L40
 364 0008 00EB8000 		add	r0, r0, r0, lsl #2
 365              	.LVL30:
 366 000c 03EB8000 		add	r0, r3, r0, lsl #2
 367 0010 C078     		ldrb	r0, [r0, #3]	@ zero_extendqisi2
 368 0012 7047     		bx	lr
 369              	.LVL31:
 370              	.L39:
 371              		.loc 1 206 0
 372 0014 0020     		movs	r0, #0
 373              	.LVL32:
 374              		.loc 1 209 0
 375 0016 7047     		bx	lr
 376              	.L41:
 377              		.align	2
 378              	.L40:
 379 0018 00000000 		.word	.LANCHOR0
 380              		.cfi_endproc
 381              	.LFE70:
 382              		.size	vexMotorDirectionGet, .-vexMotorDirectionGet
 383              		.section	.text.vexMotorPositionSet,"ax",%progbits
 384              		.align	2
 385              		.p2align 4,,15
 386              		.global	vexMotorPositionSet
 387              		.thumb
 388              		.thumb_func
 389              		.type	vexMotorPositionSet, %function
 390              	vexMotorPositionSet:
 391              	.LFB71:
 392              		.loc 1 219 0
 393              		.cfi_startproc
 394              		@ args = 0, pretend = 0, frame = 0
 395              		@ frame_needed = 0, uses_anonymous_args = 0
 396              		@ link register save eliminated.
 397              	.LVL33:
 398              		.loc 1 220 0
 399 0000 83B2     		uxth	r3, r0
ARM GAS  /var/folders/vt/qg0v_q5n5k99pnp_yg24c7s80000gn/T//ccE8gQvX.s 			page 8


 400 0002 092B     		cmp	r3, #9
 401 0004 1BD8     		bhi	.L51
 402              		.loc 1 219 0
 403 0006 30B4     		push	{r4, r5}
 404              		.cfi_def_cfa_offset 8
 405              		.cfi_offset 4, -8
 406              		.cfi_offset 5, -4
 407              		.loc 1 223 0
 408 0008 0D4B     		ldr	r3, .L52
 409 000a 8400     		lsls	r4, r0, #2
 410 000c 2218     		adds	r2, r4, r0
 411 000e 03EB8202 		add	r2, r3, r2, lsl #2
 412 0012 9568     		ldr	r5, [r2, #8]
 413 0014 95B1     		cbz	r5, .L42
 414              		.loc 1 226 0
 415 0016 9278     		ldrb	r2, [r2, #2]	@ zero_extendqisi2
 416 0018 012A     		cmp	r2, #1
 417              		.loc 1 230 0
 418 001a 04EB0002 		add	r2, r4, r0
 419 001e 03EB8202 		add	r2, r3, r2, lsl #2
 420 0022 D278     		ldrb	r2, [r2, #3]	@ zero_extendqisi2
 421              		.loc 1 227 0
 422 0024 08BF     		it	eq
 423 0026 4942     		rsbeq	r1, r1, #0
 424              	.LVL34:
 425              		.loc 1 230 0
 426 0028 02B9     		cbnz	r2, .L45
 427              		.loc 1 231 0
 428 002a 4942     		negs	r1, r1
 429              	.LVL35:
 430              	.L45:
 431              		.loc 1 234 0
 432 002c 2044     		add	r0, r0, r4
 433              	.LVL36:
 434 002e 03EB8000 		add	r0, r3, r0, lsl #2
 435 0032 B0F91000 		ldrsh	r0, [r0, #16]
 436 0036 2B46     		mov	r3, r5
 437              		.loc 1 238 0
 438 0038 30BC     		pop	{r4, r5}
 439              		.cfi_remember_state
 440              		.cfi_restore 5
 441              		.cfi_restore 4
 442              		.cfi_def_cfa_offset 0
 443              		.loc 1 234 0
 444 003a 1847     		bx	r3	@ indirect register sibling call
 445              	.LVL37:
 446              	.L42:
 447              		.cfi_restore_state
 448              		.loc 1 238 0
 449 003c 30BC     		pop	{r4, r5}
 450              		.cfi_restore 5
 451              		.cfi_restore 4
 452              		.cfi_def_cfa_offset 0
 453              	.L51:
 454 003e 7047     		bx	lr
 455              	.L53:
 456              		.align	2
ARM GAS  /var/folders/vt/qg0v_q5n5k99pnp_yg24c7s80000gn/T//ccE8gQvX.s 			page 9


 457              	.L52:
 458 0040 00000000 		.word	.LANCHOR0
 459              		.cfi_endproc
 460              	.LFE71:
 461              		.size	vexMotorPositionSet, .-vexMotorPositionSet
 462              		.section	.text.vexMotorPositionGet,"ax",%progbits
 463              		.align	2
 464              		.p2align 4,,15
 465              		.global	vexMotorPositionGet
 466              		.thumb
 467              		.thumb_func
 468              		.type	vexMotorPositionGet, %function
 469              	vexMotorPositionGet:
 470              	.LFB72:
 471              		.loc 1 248 0
 472              		.cfi_startproc
 473              		@ args = 0, pretend = 0, frame = 0
 474              		@ frame_needed = 0, uses_anonymous_args = 0
 475              		@ link register save eliminated.
 476              	.LVL38:
 477              		.loc 1 251 0
 478 0000 83B2     		uxth	r3, r0
 479 0002 092B     		cmp	r3, #9
 480 0004 01D8     		bhi	.L55
 481 0006 FFF7FEBF 		b	vexMotorPositionGet.part.1
 482              	.LVL39:
 483              	.L55:
 484              		.loc 1 269 0
 485 000a 0020     		movs	r0, #0
 486              	.LVL40:
 487 000c 7047     		bx	lr
 488              		.cfi_endproc
 489              	.LFE72:
 490              		.size	vexMotorPositionGet, .-vexMotorPositionGet
 491 000e 00BF     		.section	.text.vexMotorPositionGetCallback,"ax",%progbits
 492              		.align	2
 493              		.p2align 4,,15
 494              		.global	vexMotorPositionGetCallback
 495              		.thumb
 496              		.thumb_func
 497              		.type	vexMotorPositionGetCallback, %function
 498              	vexMotorPositionGetCallback:
 499              	.LFB73:
 500              		.loc 1 280 0
 501              		.cfi_startproc
 502              		@ args = 0, pretend = 0, frame = 0
 503              		@ frame_needed = 0, uses_anonymous_args = 0
 504              		@ link register save eliminated.
 505              	.LVL41:
 506              		.loc 1 281 0
 507 0000 83B2     		uxth	r3, r0
 508 0002 092B     		cmp	r3, #9
 509 0004 06D8     		bhi	.L56
 510              		.loc 1 284 0
 511 0006 044B     		ldr	r3, .L58
 512 0008 00EB8000 		add	r0, r0, r0, lsl #2
 513              	.LVL42:
ARM GAS  /var/folders/vt/qg0v_q5n5k99pnp_yg24c7s80000gn/T//ccE8gQvX.s 			page 10


 514 000c 03EB8000 		add	r0, r3, r0, lsl #2
 515 0010 4160     		str	r1, [r0, #4]
 516              		.loc 1 285 0
 517 0012 0282     		strh	r2, [r0, #16]	@ movhi
 518              	.L56:
 519 0014 7047     		bx	lr
 520              	.L59:
 521 0016 00BF     		.align	2
 522              	.L58:
 523 0018 00000000 		.word	.LANCHOR0
 524              		.cfi_endproc
 525              	.LFE73:
 526              		.size	vexMotorPositionGetCallback, .-vexMotorPositionGetCallback
 527              		.section	.text.vexMotorPositionSetCallback,"ax",%progbits
 528              		.align	2
 529              		.p2align 4,,15
 530              		.global	vexMotorPositionSetCallback
 531              		.thumb
 532              		.thumb_func
 533              		.type	vexMotorPositionSetCallback, %function
 534              	vexMotorPositionSetCallback:
 535              	.LFB74:
 536              		.loc 1 297 0
 537              		.cfi_startproc
 538              		@ args = 0, pretend = 0, frame = 0
 539              		@ frame_needed = 0, uses_anonymous_args = 0
 540              		@ link register save eliminated.
 541              	.LVL43:
 542              		.loc 1 298 0
 543 0000 83B2     		uxth	r3, r0
 544 0002 092B     		cmp	r3, #9
 545 0004 06D8     		bhi	.L60
 546              		.loc 1 301 0
 547 0006 044B     		ldr	r3, .L62
 548 0008 00EB8000 		add	r0, r0, r0, lsl #2
 549              	.LVL44:
 550 000c 03EB8000 		add	r0, r3, r0, lsl #2
 551 0010 8160     		str	r1, [r0, #8]
 552              		.loc 1 302 0
 553 0012 0282     		strh	r2, [r0, #16]	@ movhi
 554              	.L60:
 555 0014 7047     		bx	lr
 556              	.L63:
 557 0016 00BF     		.align	2
 558              	.L62:
 559 0018 00000000 		.word	.LANCHOR0
 560              		.cfi_endproc
 561              	.LFE74:
 562              		.size	vexMotorPositionSetCallback, .-vexMotorPositionSetCallback
 563              		.section	.text.vexMotorEncoderIdCallback,"ax",%progbits
 564              		.align	2
 565              		.p2align 4,,15
 566              		.global	vexMotorEncoderIdCallback
 567              		.thumb
 568              		.thumb_func
 569              		.type	vexMotorEncoderIdCallback, %function
 570              	vexMotorEncoderIdCallback:
ARM GAS  /var/folders/vt/qg0v_q5n5k99pnp_yg24c7s80000gn/T//ccE8gQvX.s 			page 11


 571              	.LFB75:
 572              		.loc 1 314 0
 573              		.cfi_startproc
 574              		@ args = 0, pretend = 0, frame = 0
 575              		@ frame_needed = 0, uses_anonymous_args = 0
 576              		@ link register save eliminated.
 577              	.LVL45:
 578              		.loc 1 315 0
 579 0000 83B2     		uxth	r3, r0
 580 0002 092B     		cmp	r3, #9
 581 0004 06D8     		bhi	.L64
 582              		.loc 1 318 0
 583 0006 044B     		ldr	r3, .L66
 584 0008 00EB8000 		add	r0, r0, r0, lsl #2
 585              	.LVL46:
 586 000c 03EB8000 		add	r0, r3, r0, lsl #2
 587 0010 C160     		str	r1, [r0, #12]
 588              		.loc 1 319 0
 589 0012 0282     		strh	r2, [r0, #16]	@ movhi
 590              	.L64:
 591 0014 7047     		bx	lr
 592              	.L67:
 593 0016 00BF     		.align	2
 594              	.L66:
 595 0018 00000000 		.word	.LANCHOR0
 596              		.cfi_endproc
 597              	.LFE75:
 598              		.size	vexMotorEncoderIdCallback, .-vexMotorEncoderIdCallback
 599              		.section	.text.vexMotorEncoderIdGet,"ax",%progbits
 600              		.align	2
 601              		.p2align 4,,15
 602              		.global	vexMotorEncoderIdGet
 603              		.thumb
 604              		.thumb_func
 605              		.type	vexMotorEncoderIdGet, %function
 606              	vexMotorEncoderIdGet:
 607              	.LFB76:
 608              		.loc 1 331 0
 609              		.cfi_startproc
 610              		@ args = 0, pretend = 0, frame = 0
 611              		@ frame_needed = 0, uses_anonymous_args = 0
 612              		@ link register save eliminated.
 613              	.LVL47:
 614              		.loc 1 332 0
 615 0000 83B2     		uxth	r3, r0
 616 0002 092B     		cmp	r3, #9
 617 0004 09D8     		bhi	.L69
 618              		.loc 1 335 0
 619 0006 064B     		ldr	r3, .L73
 620 0008 00EB8000 		add	r0, r0, r0, lsl #2
 621              	.LVL48:
 622 000c 03EB8000 		add	r0, r3, r0, lsl #2
 623 0010 C368     		ldr	r3, [r0, #12]
 624 0012 13B1     		cbz	r3, .L69
 625              		.loc 1 337 0
 626 0014 B0F91000 		ldrsh	r0, [r0, #16]
 627 0018 1847     		bx	r3
ARM GAS  /var/folders/vt/qg0v_q5n5k99pnp_yg24c7s80000gn/T//ccE8gQvX.s 			page 12


 628              	.LVL49:
 629              	.L69:
 630              		.loc 1 341 0
 631 001a 4FF0FF30 		mov	r0, #-1
 632 001e 7047     		bx	lr
 633              	.L74:
 634              		.align	2
 635              	.L73:
 636 0020 00000000 		.word	.LANCHOR0
 637              		.cfi_endproc
 638              	.LFE76:
 639              		.size	vexMotorEncoderIdGet, .-vexMotorEncoderIdGet
 640              		.section	.text.vexMotorDebug,"ax",%progbits
 641              		.align	2
 642              		.p2align 4,,15
 643              		.global	vexMotorDebug
 644              		.thumb
 645              		.thumb_func
 646              		.type	vexMotorDebug, %function
 647              	vexMotorDebug:
 648              	.LFB77:
 649              		.loc 1 352 0
 650              		.cfi_startproc
 651              		@ args = 0, pretend = 0, frame = 0
 652              		@ frame_needed = 0, uses_anonymous_args = 0
 653              	.LVL50:
 654 0000 2DE9F041 		push	{r4, r5, r6, r7, r8, lr}
 655              		.cfi_def_cfa_offset 24
 656              		.cfi_offset 4, -24
 657              		.cfi_offset 5, -20
 658              		.cfi_offset 6, -16
 659              		.cfi_offset 7, -12
 660              		.cfi_offset 8, -8
 661              		.cfi_offset 14, -4
 662              		.loc 1 356 0
 663 0004 0129     		cmp	r1, #1
 664              		.loc 1 352 0
 665 0006 82B0     		sub	sp, sp, #8
 666              		.cfi_def_cfa_offset 32
 667              		.loc 1 352 0
 668 0008 0746     		mov	r7, r0
 669              		.loc 1 356 0
 670 000a 16DD     		ble	.L86
 671              		.loc 1 372 0
 672 000c 1068     		ldr	r0, [r2]
 673              	.LVL51:
 674 000e 1546     		mov	r5, r2
 675 0010 FFF7FEFF 		bl	atoi
 676              	.LVL52:
 677 0014 86B2     		uxth	r6, r0
 678              	.LVL53:
 679              		.loc 1 374 0
 680 0016 34B2     		sxth	r4, r6
 681              		.loc 1 373 0
 682 0018 6868     		ldr	r0, [r5, #4]
 683 001a FFF7FEFF 		bl	atoi
 684              	.LVL54:
ARM GAS  /var/folders/vt/qg0v_q5n5k99pnp_yg24c7s80000gn/T//ccE8gQvX.s 			page 13


 685              		.loc 1 374 0
 686 001e 002C     		cmp	r4, #0
 687 0020 08DB     		blt	.L75
 688              		.loc 1 375 0
 689 0022 05B2     		sxth	r5, r0
 690              	.LVL55:
 691 0024 2B46     		mov	r3, r5
 692 0026 3846     		mov	r0, r7
 693              	.LVL56:
 694 0028 2246     		mov	r2, r4
 695 002a 2849     		ldr	r1, .L90
 696 002c FFF7FEFF 		bl	vex_chprintf
 697              	.LVL57:
 698              	.LBB46:
 699              	.LBB47:
 700              		.loc 1 109 0
 701 0030 092E     		cmp	r6, #9
 702 0032 39D9     		bls	.L87
 703              	.LVL58:
 704              	.L75:
 705              	.LBE47:
 706              	.LBE46:
 707              		.loc 1 380 0
 708 0034 02B0     		add	sp, sp, #8
 709              		.cfi_remember_state
 710              		.cfi_def_cfa_offset 24
 711              		@ sp needed
 712 0036 BDE8F081 		pop	{r4, r5, r6, r7, r8, pc}
 713              	.LVL59:
 714              	.L86:
 715              		.cfi_restore_state
 716 003a DFF8A880 		ldr	r8, .L90+24
 717              		.loc 1 359 0
 718 003e 2449     		ldr	r1, .L90+4
 719              	.LVL60:
 720 0040 4546     		mov	r5, r8
 721 0042 FFF7FEFF 		bl	vex_chprintf
 722              	.LVL61:
 723 0046 0024     		movs	r4, #0
 724 0048 12E0     		b	.L80
 725              	.LVL62:
 726              	.L88:
 727              		.loc 1 364 0
 728 004a 2249     		ldr	r1, .L90+8
 729 004c 3846     		mov	r0, r7
 730 004e FFF7FEFF 		bl	vex_chprintf
 731              	.LVL63:
 732              	.LBB51:
 733              	.LBB52:
 734              		.loc 1 335 0
 735 0052 EB68     		ldr	r3, [r5, #12]
 736 0054 2BB3     		cbz	r3, .L83
 737              	.L89:
 738              		.loc 1 337 0
 739 0056 B5F91000 		ldrsh	r0, [r5, #16]
 740 005a 9847     		blx	r3
 741              	.LVL64:
ARM GAS  /var/folders/vt/qg0v_q5n5k99pnp_yg24c7s80000gn/T//ccE8gQvX.s 			page 14


 742 005c 0246     		mov	r2, r0
 743              	.L79:
 744              	.LVL65:
 745              	.LBE52:
 746              	.LBE51:
 747              		.loc 1 367 0
 748 005e 1E49     		ldr	r1, .L90+12
 749 0060 0134     		adds	r4, r4, #1
 750              	.LVL66:
 751 0062 3846     		mov	r0, r7
 752 0064 FFF7FEFF 		bl	vex_chprintf
 753              	.LVL67:
 754              		.loc 1 360 0
 755 0068 0A2C     		cmp	r4, #10
 756 006a 05F11405 		add	r5, r5, #20
 757 006e E1D0     		beq	.L75
 758              	.L80:
 759              	.LVL68:
 760              		.loc 1 362 0
 761 0070 04EB8403 		add	r3, r4, r4, lsl #2
 762              	.LBB54:
 763              	.LBB55:
 764 0074 20B2     		sxth	r0, r4
 765              	.LBE55:
 766              	.LBE54:
 767 0076 38F82360 		ldrh	r6, [r8, r3, lsl #2]
 768              	.LBB57:
 769              	.LBB56:
 770 007a FFF7FEFF 		bl	vexMotorPositionGet.part.1
 771              	.LVL69:
 772              	.LBE56:
 773              	.LBE57:
 774 007e B6B2     		uxth	r6, r6
 775              	.LVL70:
 776 0080 33B2     		sxth	r3, r6
 777 0082 0090     		str	r0, [sp]
 778 0084 1549     		ldr	r1, .L90+16
 779 0086 2246     		mov	r2, r4
 780 0088 3846     		mov	r0, r7
 781 008a FFF7FEFF 		bl	vex_chprintf
 782              	.LVL71:
 783              		.loc 1 363 0
 784 008e EB78     		ldrb	r3, [r5, #3]	@ zero_extendqisi2
 785              		.loc 1 366 0
 786 0090 1349     		ldr	r1, .L90+20
 787              		.loc 1 363 0
 788 0092 002B     		cmp	r3, #0
 789 0094 D9D1     		bne	.L88
 790              		.loc 1 366 0
 791 0096 3846     		mov	r0, r7
 792 0098 FFF7FEFF 		bl	vex_chprintf
 793              	.LVL72:
 794              	.LBB58:
 795              	.LBB53:
 796              		.loc 1 335 0
 797 009c EB68     		ldr	r3, [r5, #12]
 798 009e 002B     		cmp	r3, #0
ARM GAS  /var/folders/vt/qg0v_q5n5k99pnp_yg24c7s80000gn/T//ccE8gQvX.s 			page 15


 799 00a0 D9D1     		bne	.L89
 800              	.L83:
 801 00a2 4FF0FF32 		mov	r2, #-1
 802 00a6 DAE7     		b	.L79
 803              	.LVL73:
 804              	.L87:
 805 00a8 6FF07E00 		mvn	r0, #126
 806 00ac A842     		cmp	r0, r5
 807 00ae B8BF     		it	lt
 808 00b0 2846     		movlt	r0, r5
 809 00b2 7F28     		cmp	r0, #127
 810 00b4 A8BF     		it	ge
 811 00b6 7F20     		movge	r0, #127
 812              	.LBE53:
 813              	.LBE58:
 814              	.LBB59:
 815              	.LBB50:
 816              	.LBB48:
 817              	.LBB49:
 818              		.loc 1 120 0
 819 00b8 0A4A     		ldr	r2, .L90+24
 820 00ba 04EB8404 		add	r4, r4, r4, lsl #2
 821 00be A400     		lsls	r4, r4, #2
 822 00c0 83B2     		uxth	r3, r0
 823              	.LVL74:
 824 00c2 1353     		strh	r3, [r2, r4]	@ movhi
 825              	.LBE49:
 826              	.LBE48:
 827              	.LBE50:
 828              	.LBE59:
 829              		.loc 1 380 0
 830 00c4 02B0     		add	sp, sp, #8
 831              		.cfi_def_cfa_offset 24
 832              		@ sp needed
 833 00c6 BDE8F081 		pop	{r4, r5, r6, r7, r8, pc}
 834              	.LVL75:
 835              	.L91:
 836 00ca 00BF     		.align	2
 837              	.L90:
 838 00cc 50000000 		.word	.LC5
 839 00d0 00000000 		.word	.LC0
 840 00d4 38000000 		.word	.LC2
 841 00d8 48000000 		.word	.LC4
 842 00dc 24000000 		.word	.LC1
 843 00e0 40000000 		.word	.LC3
 844 00e4 00000000 		.word	.LANCHOR0
 845              		.cfi_endproc
 846              	.LFE77:
 847              		.size	vexMotorDebug, .-vexMotorDebug
 848              		.section	.text._vexMotorPwmInit,"ax",%progbits
 849              		.align	2
 850              		.p2align 4,,15
 851              		.global	_vexMotorPwmInit
 852              		.thumb
 853              		.thumb_func
 854              		.type	_vexMotorPwmInit, %function
 855              	_vexMotorPwmInit:
ARM GAS  /var/folders/vt/qg0v_q5n5k99pnp_yg24c7s80000gn/T//ccE8gQvX.s 			page 16


 856              	.LFB79:
 857              		.loc 1 493 0
 858              		.cfi_startproc
 859              		@ args = 0, pretend = 0, frame = 0
 860              		@ frame_needed = 0, uses_anonymous_args = 0
 861              	.LVL76:
 862 0000 2DE9F843 		push	{r3, r4, r5, r6, r7, r8, r9, lr}
 863              		.cfi_def_cfa_offset 32
 864              		.cfi_offset 3, -32
 865              		.cfi_offset 4, -28
 866              		.cfi_offset 5, -24
 867              		.cfi_offset 6, -20
 868              		.cfi_offset 7, -16
 869              		.cfi_offset 8, -12
 870              		.cfi_offset 9, -8
 871              		.cfi_offset 14, -4
 872              		.loc 1 496 0
 873 0004 494B     		ldr	r3, .L99
 874              		.loc 1 493 0
 875 0006 0446     		mov	r4, r0
 876              		.loc 1 496 0
 877 0008 9842     		cmp	r0, r3
 878 000a 78D0     		beq	.L97
 879              		.loc 1 504 0
 880 000c 484B     		ldr	r3, .L99+4
 881 000e 9842     		cmp	r0, r3
 882 0010 01D0     		beq	.L98
 883 0012 BDE8F883 		pop	{r3, r4, r5, r6, r7, r8, r9, pc}
 884              	.L98:
 885              		.loc 1 506 0
 886 0016 4749     		ldr	r1, .L99+8
 887              		.loc 1 507 0
 888 0018 03F50233 		add	r3, r3, #133120
 889              		.loc 1 506 0
 890 001c 4A68     		ldr	r2, [r1, #4]
 891              		.loc 1 508 0
 892 001e 0025     		movs	r5, #0
 893              		.loc 1 506 0
 894 0020 42F48052 		orr	r2, r2, #4096
 895 0024 4A60     		str	r2, [r1, #4]
 896              		.loc 1 507 0
 897 0026 DA69     		ldr	r2, [r3, #28]
 898              		.loc 1 509 0
 899 0028 7021     		movs	r1, #112
 900              		.loc 1 507 0
 901 002a 42F00402 		orr	r2, r2, #4
 902 002e DA61     		str	r2, [r3, #28]
 903              		.loc 1 508 0
 904 0030 1A69     		ldr	r2, [r3, #16]
 905              		.loc 1 509 0
 906 0032 1E20     		movs	r0, #30
 907              	.LVL77:
 908              		.loc 1 508 0
 909 0034 42F00402 		orr	r2, r2, #4
 910 0038 1A61     		str	r2, [r3, #16]
 911 003a 1D61     		str	r5, [r3, #16]
 912              		.loc 1 509 0
ARM GAS  /var/folders/vt/qg0v_q5n5k99pnp_yg24c7s80000gn/T//ccE8gQvX.s 			page 17


 913 003c FFF7FEFF 		bl	nvicEnableVector
 914              	.LVL78:
 915              	.L94:
 916              	.LBB62:
 917              	.LBB63:
 918              		.loc 1 526 0
 919 0040 46F66803 		movw	r3, #26728
 920              		.loc 1 531 0
 921 0044 42F22222 		movw	r2, #8738
 922              		.loc 1 518 0
 923 0048 0026     		movs	r6, #0
 924              		.loc 1 522 0
 925 004a 4FF4EC70 		mov	r0, #472
 926              		.loc 1 523 0
 927 004e 7E21     		movs	r1, #126
 928              		.loc 1 518 0
 929 0050 2680     		strh	r6, [r4]	@ movhi
 930              		.loc 1 519 0
 931 0052 A681     		strh	r6, [r4, #12]	@ movhi
 932              		.loc 1 520 0
 933 0054 2682     		strh	r6, [r4, #16]	@ movhi
 934              		.loc 1 522 0
 935 0056 2085     		strh	r0, [r4, #40]	@ movhi
 936              		.loc 1 523 0
 937 0058 A185     		strh	r1, [r4, #44]	@ movhi
 938              		.loc 1 524 0
 939 005a A680     		strh	r6, [r4, #4]	@ movhi
 940              		.loc 1 526 0
 941 005c 2383     		strh	r3, [r4, #24]	@ movhi
 942              		.loc 1 528 0
 943 005e A383     		strh	r3, [r4, #28]	@ movhi
 944              		.loc 1 531 0
 945 0060 2284     		strh	r2, [r4, #32]	@ movhi
 946              		.loc 1 532 0
 947 0062 238C     		ldrh	r3, [r4, #32]
 948              		.loc 1 543 0
 949 0064 344D     		ldr	r5, .L99+12
 950              		.loc 1 532 0
 951 0066 9BB2     		uxth	r3, r3
 952              		.loc 1 515 0
 953 0068 3449     		ldr	r1, .L99+16
 954              		.loc 1 532 0
 955 006a 43F48853 		orr	r3, r3, #4352
 956 006e 43F01103 		orr	r3, r3, #17
 957              		.loc 1 544 0
 958 0072 1027     		movs	r7, #16
 959              		.loc 1 543 0
 960 0074 0822     		movs	r2, #8
 961              		.loc 1 540 0
 962 0076 8120     		movs	r0, #129
 963              		.loc 1 545 0
 964 0078 4FF08009 		mov	r9, #128
 965              		.loc 1 546 0
 966 007c 4FF48078 		mov	r8, #256
 967              		.loc 1 532 0
 968 0080 2384     		strh	r3, [r4, #32]	@ movhi
 969              		.loc 1 515 0
ARM GAS  /var/folders/vt/qg0v_q5n5k99pnp_yg24c7s80000gn/T//ccE8gQvX.s 			page 18


 970 0082 0C60     		str	r4, [r1]
 971              		.loc 1 535 0
 972 0084 A686     		strh	r6, [r4, #52]	@ movhi
 973              		.loc 1 547 0
 974 0086 1146     		mov	r1, r2
 975              		.loc 1 536 0
 976 0088 2687     		strh	r6, [r4, #56]	@ movhi
 977              		.loc 1 537 0
 978 008a A687     		strh	r6, [r4, #60]	@ movhi
 979              		.loc 1 538 0
 980 008c A4F84060 		strh	r6, [r4, #64]	@ movhi
 981              		.loc 1 540 0
 982 0090 2080     		strh	r0, [r4]	@ movhi
 983              		.loc 1 543 0
 984 0092 6A61     		str	r2, [r5, #20]
 985              		.loc 1 547 0
 986 0094 2846     		mov	r0, r5
 987              		.loc 1 544 0
 988 0096 6F61     		str	r7, [r5, #20]
 989              		.loc 1 547 0
 990 0098 0622     		movs	r2, #6
 991              		.loc 1 545 0
 992 009a C5F81490 		str	r9, [r5, #20]
 993              		.loc 1 546 0
 994 009e C5F81480 		str	r8, [r5, #20]
 995              		.loc 1 547 0
 996 00a2 FFF7FEFF 		bl	_pal_lld_setgroupmode
 997              	.LVL79:
 998              		.loc 1 548 0
 999 00a6 3946     		mov	r1, r7
 1000 00a8 2846     		mov	r0, r5
 1001 00aa 0622     		movs	r2, #6
 1002 00ac FFF7FEFF 		bl	_pal_lld_setgroupmode
 1003              	.LVL80:
 1004              		.loc 1 549 0
 1005 00b0 4946     		mov	r1, r9
 1006 00b2 2846     		mov	r0, r5
 1007 00b4 0622     		movs	r2, #6
 1008 00b6 FFF7FEFF 		bl	_pal_lld_setgroupmode
 1009              	.LVL81:
 1010              		.loc 1 550 0
 1011 00ba 4146     		mov	r1, r8
 1012 00bc 2846     		mov	r0, r5
 1013 00be 0622     		movs	r2, #6
 1014 00c0 FFF7FEFF 		bl	_pal_lld_setgroupmode
 1015              	.LVL82:
 1016              		.loc 1 553 0
 1017 00c4 3A46     		mov	r2, r7
 1018 00c6 2846     		mov	r0, r5
 1019 00c8 4FF48051 		mov	r1, #4096
 1020 00cc FFF7FEFF 		bl	_pal_lld_setgroupmode
 1021              	.LVL83:
 1022              		.loc 1 554 0
 1023 00d0 3A46     		mov	r2, r7
 1024 00d2 2846     		mov	r0, r5
 1025 00d4 4FF40051 		mov	r1, #8192
 1026 00d8 FFF7FEFF 		bl	_pal_lld_setgroupmode
ARM GAS  /var/folders/vt/qg0v_q5n5k99pnp_yg24c7s80000gn/T//ccE8gQvX.s 			page 19


 1027              	.LVL84:
 1028              		.loc 1 555 0
 1029 00dc 3A46     		mov	r2, r7
 1030 00de 2846     		mov	r0, r5
 1031 00e0 4FF48041 		mov	r1, #16384
 1032 00e4 FFF7FEFF 		bl	_pal_lld_setgroupmode
 1033              	.LVL85:
 1034              		.loc 1 556 0
 1035 00e8 3A46     		mov	r2, r7
 1036 00ea 2846     		mov	r0, r5
 1037 00ec 4FF40041 		mov	r1, #32768
 1038 00f0 FFF7FEFF 		bl	_pal_lld_setgroupmode
 1039              	.LVL86:
 1040              		.loc 1 560 0
 1041 00f4 0123     		movs	r3, #1
 1042 00f6 A381     		strh	r3, [r4, #12]	@ movhi
 1043              		.loc 1 561 0
 1044 00f8 2682     		strh	r6, [r4, #16]	@ movhi
 1045 00fa BDE8F883 		pop	{r3, r4, r5, r6, r7, r8, r9, pc}
 1046              	.LVL87:
 1047              	.L97:
 1048              	.LBE63:
 1049              	.LBE62:
 1050              		.loc 1 498 0
 1051 00fe 0D49     		ldr	r1, .L99+8
 1052              		.loc 1 499 0
 1053 0100 03F50333 		add	r3, r3, #134144
 1054              		.loc 1 498 0
 1055 0104 4A68     		ldr	r2, [r1, #4]
 1056              		.loc 1 500 0
 1057 0106 0025     		movs	r5, #0
 1058              		.loc 1 498 0
 1059 0108 42F44062 		orr	r2, r2, #3072
 1060 010c 4A60     		str	r2, [r1, #4]
 1061              		.loc 1 499 0
 1062 010e DA69     		ldr	r2, [r3, #28]
 1063              		.loc 1 501 0
 1064 0110 7021     		movs	r1, #112
 1065              		.loc 1 499 0
 1066 0112 42F00202 		orr	r2, r2, #2
 1067 0116 DA61     		str	r2, [r3, #28]
 1068              		.loc 1 500 0
 1069 0118 1A69     		ldr	r2, [r3, #16]
 1070              		.loc 1 501 0
 1071 011a 1D20     		movs	r0, #29
 1072              	.LVL88:
 1073              		.loc 1 500 0
 1074 011c 42F00202 		orr	r2, r2, #2
 1075 0120 1A61     		str	r2, [r3, #16]
 1076 0122 1D61     		str	r5, [r3, #16]
 1077              		.loc 1 501 0
 1078 0124 FFF7FEFF 		bl	nvicEnableVector
 1079              	.LVL89:
 1080 0128 8AE7     		b	.L94
 1081              	.L100:
 1082 012a 00BF     		.align	2
 1083              	.L99:
ARM GAS  /var/folders/vt/qg0v_q5n5k99pnp_yg24c7s80000gn/T//ccE8gQvX.s 			page 20


 1084 012c 00040040 		.word	1073742848
 1085 0130 00080040 		.word	1073743872
 1086 0134 00000140 		.word	1073807360
 1087 0138 00140140 		.word	1073812480
 1088 013c 00000000 		.word	.LANCHOR1
 1089              		.cfi_endproc
 1090              	.LFE79:
 1091              		.size	_vexMotorPwmInit, .-_vexMotorPwmInit
 1092              		.section	.text.vexMotorInit,"ax",%progbits
 1093              		.align	2
 1094              		.p2align 4,,15
 1095              		.global	vexMotorInit
 1096              		.thumb
 1097              		.thumb_func
 1098              		.type	vexMotorInit, %function
 1099              	vexMotorInit:
 1100              	.LFB63:
 1101              		.loc 1 79 0
 1102              		.cfi_startproc
 1103              		@ args = 0, pretend = 0, frame = 0
 1104              		@ frame_needed = 0, uses_anonymous_args = 0
 1105              		@ link register save eliminated.
 1106              	.LVL90:
 1107 0000 10B4     		push	{r4}
 1108              		.cfi_def_cfa_offset 4
 1109              		.cfi_offset 4, -4
 1110 0002 0C4C     		ldr	r4, .L105
 1111              		.loc 1 79 0
 1112 0004 0022     		movs	r2, #0
 1113 0006 2346     		mov	r3, r4
 1114              		.loc 1 84 0
 1115 0008 1146     		mov	r1, r2
 1116              	.LVL91:
 1117              	.L102:
 1118              		.loc 1 84 0 is_stmt 0 discriminator 3
 1119 000a 02EB8200 		add	r0, r2, r2, lsl #2
 1120 000e 0132     		adds	r2, r2, #1
 1121              	.LVL92:
 1122              		.loc 1 82 0 is_stmt 1 discriminator 3
 1123 0010 0A2A     		cmp	r2, #10
 1124              		.loc 1 84 0 discriminator 3
 1125 0012 24F82010 		strh	r1, [r4, r0, lsl #2]	@ movhi
 1126 0016 03F11403 		add	r3, r3, #20
 1127              		.loc 1 85 0 discriminator 3
 1128 001a 03F8121C 		strb	r1, [r3, #-18]
 1129              		.loc 1 86 0 discriminator 3
 1130 001e 03F8111C 		strb	r1, [r3, #-17]
 1131              		.loc 1 87 0 discriminator 3
 1132 0022 43F8101C 		str	r1, [r3, #-16]
 1133              		.loc 1 88 0 discriminator 3
 1134 0026 43F80C1C 		str	r1, [r3, #-12]
 1135              		.loc 1 82 0 discriminator 3
 1136 002a EED1     		bne	.L102
 1137              		.loc 1 95 0
 1138 002c 0248     		ldr	r0, .L105+4
 1139              		.loc 1 98 0
 1140 002e 10BC     		pop	{r4}
ARM GAS  /var/folders/vt/qg0v_q5n5k99pnp_yg24c7s80000gn/T//ccE8gQvX.s 			page 21


 1141              		.cfi_restore 4
 1142              		.cfi_def_cfa_offset 0
 1143              		.loc 1 95 0
 1144 0030 FFF7FEBF 		b	_vexMotorPwmInit
 1145              	.LVL93:
 1146              	.L106:
 1147              		.align	2
 1148              	.L105:
 1149 0034 00000000 		.word	.LANCHOR0
 1150 0038 00080040 		.word	1073743872
 1151              		.cfi_endproc
 1152              	.LFE63:
 1153              		.size	vexMotorInit, .-vexMotorInit
 1154              		.section	.text._vexMotorPwmSet_0,"ax",%progbits
 1155              		.align	2
 1156              		.p2align 4,,15
 1157              		.global	_vexMotorPwmSet_0
 1158              		.thumb
 1159              		.thumb_func
 1160              		.type	_vexMotorPwmSet_0, %function
 1161              	_vexMotorPwmSet_0:
 1162              	.LFB80:
 1163              		.loc 1 576 0
 1164              		.cfi_startproc
 1165              		@ args = 0, pretend = 0, frame = 0
 1166              		@ frame_needed = 0, uses_anonymous_args = 0
 1167              		@ link register save eliminated.
 1168              	.LVL94:
 1169              		.loc 1 579 0
 1170 0000 134B     		ldr	r3, .L118
 1171 0002 1B68     		ldr	r3, [r3]
 1172 0004 6BB1     		cbz	r3, .L116
 1173              		.loc 1 582 0
 1174 0006 0028     		cmp	r0, #0
 1175              		.loc 1 576 0
 1176 0008 30B4     		push	{r4, r5}
 1177              		.cfi_def_cfa_offset 8
 1178              		.cfi_offset 4, -8
 1179              		.cfi_offset 5, -4
 1180              		.loc 1 582 0
 1181 000a 0BDD     		ble	.L109
 1182              		.loc 1 585 0
 1183 000c 114A     		ldr	r2, .L118+4
 1184              		.loc 1 588 0
 1185 000e 00F07F00 		and	r0, r0, #127
 1186              	.LVL95:
 1187              		.loc 1 584 0
 1188 0012 0025     		movs	r5, #0
 1189              		.loc 1 585 0
 1190 0014 0824     		movs	r4, #8
 1191              		.loc 1 587 0
 1192 0016 1021     		movs	r1, #16
 1193              		.loc 1 584 0
 1194 0018 1D87     		strh	r5, [r3, #56]	@ movhi
 1195              		.loc 1 585 0
 1196 001a 5461     		str	r4, [r2, #20]
 1197              	.LVL96:
ARM GAS  /var/folders/vt/qg0v_q5n5k99pnp_yg24c7s80000gn/T//ccE8gQvX.s 			page 22


 1198              		.loc 1 587 0
 1199 001c 1161     		str	r1, [r2, #16]
 1200              		.loc 1 588 0
 1201 001e 9886     		strh	r0, [r3, #52]	@ movhi
 1202              	.L107:
 1203              		.loc 1 606 0
 1204 0020 30BC     		pop	{r4, r5}
 1205              		.cfi_restore 5
 1206              		.cfi_restore 4
 1207              		.cfi_def_cfa_offset 0
 1208              	.L116:
 1209 0022 7047     		bx	lr
 1210              	.LVL97:
 1211              	.L109:
 1212              		.cfi_def_cfa_offset 8
 1213              		.cfi_offset 4, -8
 1214              		.cfi_offset 5, -4
 1215              		.loc 1 591 0
 1216 0024 07D1     		bne	.L117
 1217              		.loc 1 603 0
 1218 0026 0B4A     		ldr	r2, .L118+4
 1219 0028 0824     		movs	r4, #8
 1220              		.loc 1 604 0
 1221 002a 1021     		movs	r1, #16
 1222              		.loc 1 601 0
 1223 002c 9886     		strh	r0, [r3, #52]	@ movhi
 1224              		.loc 1 602 0
 1225 002e 1887     		strh	r0, [r3, #56]	@ movhi
 1226              		.loc 1 603 0
 1227 0030 5461     		str	r4, [r2, #20]
 1228              		.loc 1 604 0
 1229 0032 5161     		str	r1, [r2, #20]
 1230 0034 F4E7     		b	.L107
 1231              	.L117:
 1232              		.loc 1 594 0
 1233 0036 074A     		ldr	r2, .L118+4
 1234              		.loc 1 597 0
 1235 0038 4042     		negs	r0, r0
 1236              	.LVL98:
 1237 003a 00F07F00 		and	r0, r0, #127
 1238              		.loc 1 593 0
 1239 003e 0025     		movs	r5, #0
 1240              		.loc 1 594 0
 1241 0040 1024     		movs	r4, #16
 1242              		.loc 1 596 0
 1243 0042 0821     		movs	r1, #8
 1244              		.loc 1 593 0
 1245 0044 9D86     		strh	r5, [r3, #52]	@ movhi
 1246              		.loc 1 594 0
 1247 0046 5461     		str	r4, [r2, #20]
 1248              		.loc 1 596 0
 1249 0048 1161     		str	r1, [r2, #16]
 1250              		.loc 1 597 0
 1251 004a 1887     		strh	r0, [r3, #56]	@ movhi
 1252 004c E8E7     		b	.L107
 1253              	.L119:
 1254 004e 00BF     		.align	2
ARM GAS  /var/folders/vt/qg0v_q5n5k99pnp_yg24c7s80000gn/T//ccE8gQvX.s 			page 23


 1255              	.L118:
 1256 0050 00000000 		.word	.LANCHOR1
 1257 0054 00140140 		.word	1073812480
 1258              		.cfi_endproc
 1259              	.LFE80:
 1260              		.size	_vexMotorPwmSet_0, .-_vexMotorPwmSet_0
 1261              		.section	.text._vexMotorPwmSet_9,"ax",%progbits
 1262              		.align	2
 1263              		.p2align 4,,15
 1264              		.global	_vexMotorPwmSet_9
 1265              		.thumb
 1266              		.thumb_func
 1267              		.type	_vexMotorPwmSet_9, %function
 1268              	_vexMotorPwmSet_9:
 1269              	.LFB81:
 1270              		.loc 1 619 0
 1271              		.cfi_startproc
 1272              		@ args = 0, pretend = 0, frame = 0
 1273              		@ frame_needed = 0, uses_anonymous_args = 0
 1274              		@ link register save eliminated.
 1275              	.LVL99:
 1276              		.loc 1 622 0
 1277 0000 164B     		ldr	r3, .L131
 1278 0002 1B68     		ldr	r3, [r3]
 1279 0004 7BB1     		cbz	r3, .L129
 1280              		.loc 1 625 0
 1281 0006 0028     		cmp	r0, #0
 1282              		.loc 1 619 0
 1283 0008 30B4     		push	{r4, r5}
 1284              		.cfi_def_cfa_offset 8
 1285              		.cfi_offset 4, -8
 1286              		.cfi_offset 5, -4
 1287              		.loc 1 625 0
 1288 000a 0DDD     		ble	.L122
 1289              		.loc 1 628 0
 1290 000c 144A     		ldr	r2, .L131+4
 1291              		.loc 1 631 0
 1292 000e 00F07F00 		and	r0, r0, #127
 1293              	.LVL100:
 1294              		.loc 1 627 0
 1295 0012 0025     		movs	r5, #0
 1296              		.loc 1 628 0
 1297 0014 8024     		movs	r4, #128
 1298              		.loc 1 630 0
 1299 0016 4FF48071 		mov	r1, #256
 1300              		.loc 1 627 0
 1301 001a A3F84050 		strh	r5, [r3, #64]	@ movhi
 1302              		.loc 1 628 0
 1303 001e 5461     		str	r4, [r2, #20]
 1304              	.LVL101:
 1305              		.loc 1 630 0
 1306 0020 1161     		str	r1, [r2, #16]
 1307              		.loc 1 631 0
 1308 0022 9887     		strh	r0, [r3, #60]	@ movhi
 1309              	.L120:
 1310              		.loc 1 649 0
 1311 0024 30BC     		pop	{r4, r5}
ARM GAS  /var/folders/vt/qg0v_q5n5k99pnp_yg24c7s80000gn/T//ccE8gQvX.s 			page 24


 1312              		.cfi_restore 5
 1313              		.cfi_restore 4
 1314              		.cfi_def_cfa_offset 0
 1315              	.L129:
 1316 0026 7047     		bx	lr
 1317              	.LVL102:
 1318              	.L122:
 1319              		.cfi_def_cfa_offset 8
 1320              		.cfi_offset 4, -8
 1321              		.cfi_offset 5, -4
 1322              		.loc 1 634 0
 1323 0028 09D1     		bne	.L130
 1324              		.loc 1 646 0
 1325 002a 0D4A     		ldr	r2, .L131+4
 1326 002c 8024     		movs	r4, #128
 1327              		.loc 1 647 0
 1328 002e 4FF48071 		mov	r1, #256
 1329              		.loc 1 644 0
 1330 0032 9887     		strh	r0, [r3, #60]	@ movhi
 1331              		.loc 1 645 0
 1332 0034 A3F84000 		strh	r0, [r3, #64]	@ movhi
 1333              		.loc 1 646 0
 1334 0038 5461     		str	r4, [r2, #20]
 1335              		.loc 1 647 0
 1336 003a 5161     		str	r1, [r2, #20]
 1337 003c F2E7     		b	.L120
 1338              	.L130:
 1339              		.loc 1 637 0
 1340 003e 084A     		ldr	r2, .L131+4
 1341              		.loc 1 640 0
 1342 0040 4042     		negs	r0, r0
 1343              	.LVL103:
 1344 0042 00F07F00 		and	r0, r0, #127
 1345              		.loc 1 636 0
 1346 0046 0025     		movs	r5, #0
 1347              		.loc 1 637 0
 1348 0048 4FF48074 		mov	r4, #256
 1349              		.loc 1 639 0
 1350 004c 8021     		movs	r1, #128
 1351              		.loc 1 636 0
 1352 004e 9D87     		strh	r5, [r3, #60]	@ movhi
 1353              		.loc 1 637 0
 1354 0050 5461     		str	r4, [r2, #20]
 1355              		.loc 1 639 0
 1356 0052 1161     		str	r1, [r2, #16]
 1357              		.loc 1 640 0
 1358 0054 A3F84000 		strh	r0, [r3, #64]	@ movhi
 1359 0058 E4E7     		b	.L120
 1360              	.L132:
 1361 005a 00BF     		.align	2
 1362              	.L131:
 1363 005c 00000000 		.word	.LANCHOR1
 1364 0060 00140140 		.word	1073812480
 1365              		.cfi_endproc
 1366              	.LFE81:
 1367              		.size	_vexMotorPwmSet_9, .-_vexMotorPwmSet_9
 1368              		.section	.text.VectorB8,"ax",%progbits
ARM GAS  /var/folders/vt/qg0v_q5n5k99pnp_yg24c7s80000gn/T//ccE8gQvX.s 			page 25


 1369              		.align	2
 1370              		.p2align 4,,15
 1371              		.global	VectorB8
 1372              		.thumb
 1373              		.thumb_func
 1374              		.type	VectorB8, %function
 1375              	VectorB8:
 1376              	.LFB78:
 1377              		.loc 1 392 0
 1378              		.cfi_startproc
 1379              		@ args = 0, pretend = 0, frame = 0
 1380              		@ frame_needed = 0, uses_anonymous_args = 0
 1381 0000 F8B5     		push	{r3, r4, r5, r6, r7, lr}
 1382              		.cfi_def_cfa_offset 24
 1383              		.cfi_offset 3, -24
 1384              		.cfi_offset 4, -20
 1385              		.cfi_offset 5, -16
 1386              		.cfi_offset 6, -12
 1387              		.cfi_offset 7, -8
 1388              		.cfi_offset 14, -4
 1389              		.loc 1 398 0
 1390 0002 404D     		ldr	r5, .L174
 1391 0004 0021     		movs	r1, #0
 1392 0006 2A68     		ldr	r2, [r5]
 1393              	.LBB64:
 1394              		.loc 1 400 0
 1395 0008 2023     		movs	r3, #32
 1396              	.LBE64:
 1397              		.loc 1 398 0
 1398 000a 1182     		strh	r1, [r2, #16]	@ movhi
 1399              	.LBB65:
 1400              		.loc 1 400 0
 1401              		.syntax unified
 1402              	@ 400 "../../convex/convex/cortex/fw/vexmotor.c" 1
 1403 000c 83F31188 		msr     BASEPRI, r3
 1404              	@ 0 "" 2
 1405              		.thumb
 1406              		.syntax unified
 1407              	.LBE65:
 1408              		.loc 1 403 0
 1409 0010 3D4F     		ldr	r7, .L174+4
 1410 0012 FB78     		ldrb	r3, [r7, #3]	@ zero_extendqisi2
 1411              		.loc 1 404 0
 1412 0014 3C88     		ldrh	r4, [r7]
 1413              		.loc 1 403 0
 1414 0016 002B     		cmp	r3, #0
 1415 0018 3AD1     		bne	.L134
 1416              		.loc 1 404 0
 1417 001a 3C4B     		ldr	r3, .L174+8
 1418 001c A4B2     		uxth	r4, r4
 1419 001e 1C80     		strh	r4, [r3]	@ movhi
 1420              	.L135:
 1421              		.loc 1 408 0
 1422 0020 3B4E     		ldr	r6, .L174+12
 1423 0022 20B2     		sxth	r0, r4
 1424 0024 B6F90030 		ldrsh	r3, [r6]
 1425 0028 8342     		cmp	r3, r0
ARM GAS  /var/folders/vt/qg0v_q5n5k99pnp_yg24c7s80000gn/T//ccE8gQvX.s 			page 26


 1426 002a 0CD0     		beq	.L136
 1427              		.loc 1 411 0
 1428 002c 002C     		cmp	r4, #0
 1429 002e 46D1     		bne	.L137
 1430              	.LVL104:
 1431              	.LBB66:
 1432              	.LBB67:
 1433              		.loc 1 579 0
 1434 0030 2B68     		ldr	r3, [r5]
 1435 0032 33B1     		cbz	r3, .L138
 1436              		.loc 1 603 0
 1437 0034 374A     		ldr	r2, .L174+16
 1438 0036 0820     		movs	r0, #8
 1439              		.loc 1 604 0
 1440 0038 1021     		movs	r1, #16
 1441              		.loc 1 601 0
 1442 003a 9C86     		strh	r4, [r3, #52]	@ movhi
 1443              		.loc 1 602 0
 1444 003c 1C87     		strh	r4, [r3, #56]	@ movhi
 1445              		.loc 1 603 0
 1446 003e 5061     		str	r0, [r2, #20]
 1447              		.loc 1 604 0
 1448 0040 5161     		str	r1, [r2, #20]
 1449              	.LVL105:
 1450              	.L138:
 1451              	.LBE67:
 1452              	.LBE66:
 1453              		.loc 1 413 0
 1454 0042 0023     		movs	r3, #0
 1455 0044 3380     		strh	r3, [r6]	@ movhi
 1456              	.L136:
 1457              		.loc 1 442 0
 1458 0046 304B     		ldr	r3, .L174+4
 1459 0048 97F8B720 		ldrb	r2, [r7, #183]	@ zero_extendqisi2
 1460              		.loc 1 443 0
 1461 004c B3F8B440 		ldrh	r4, [r3, #180]
 1462 0050 314B     		ldr	r3, .L174+20
 1463              		.loc 1 442 0
 1464 0052 02B1     		cbz	r2, .L171
 1465              		.loc 1 445 0
 1466 0054 6442     		negs	r4, r4
 1467              	.L171:
 1468              		.loc 1 446 0
 1469 0056 314E     		ldr	r6, .L174+24
 1470              		.loc 1 445 0
 1471 0058 A4B2     		uxth	r4, r4
 1472 005a 1C80     		strh	r4, [r3]	@ movhi
 1473              		.loc 1 446 0
 1474 005c B6F90030 		ldrsh	r3, [r6]
 1475 0060 20B2     		sxth	r0, r4
 1476 0062 8342     		cmp	r3, r0
 1477 0064 0DD0     		beq	.L144
 1478              		.loc 1 449 0
 1479 0066 C4B9     		cbnz	r4, .L145
 1480              	.LVL106:
 1481              	.LBB68:
 1482              	.LBB69:
ARM GAS  /var/folders/vt/qg0v_q5n5k99pnp_yg24c7s80000gn/T//ccE8gQvX.s 			page 27


 1483              		.loc 1 622 0
 1484 0068 2B68     		ldr	r3, [r5]
 1485 006a 43B1     		cbz	r3, .L146
 1486              		.loc 1 646 0
 1487 006c 294A     		ldr	r2, .L174+16
 1488 006e 8020     		movs	r0, #128
 1489              		.loc 1 647 0
 1490 0070 4FF48071 		mov	r1, #256
 1491              		.loc 1 644 0
 1492 0074 9C87     		strh	r4, [r3, #60]	@ movhi
 1493              		.loc 1 645 0
 1494 0076 A3F84040 		strh	r4, [r3, #64]	@ movhi
 1495              		.loc 1 646 0
 1496 007a 5061     		str	r0, [r2, #20]
 1497              		.loc 1 647 0
 1498 007c 5161     		str	r1, [r2, #20]
 1499              	.LVL107:
 1500              	.L146:
 1501              	.LBE69:
 1502              	.LBE68:
 1503              		.loc 1 451 0
 1504 007e 0023     		movs	r3, #0
 1505 0080 3380     		strh	r3, [r6]	@ movhi
 1506              	.L144:
 1507              	.LBB70:
 1508              		.loc 1 480 0
 1509 0082 0023     		movs	r3, #0
 1510              		.syntax unified
 1511              	@ 480 "../../convex/convex/cortex/fw/vexmotor.c" 1
 1512 0084 83F31188 		msr     BASEPRI, r3
 1513              	@ 0 "" 2
 1514              		.thumb
 1515              		.syntax unified
 1516              	.LBE70:
 1517              		.loc 1 483 0
 1518 0088 BDE8F840 		pop	{r3, r4, r5, r6, r7, lr}
 1519              		.cfi_remember_state
 1520              		.cfi_restore 14
 1521              		.cfi_restore 7
 1522              		.cfi_restore 6
 1523              		.cfi_restore 5
 1524              		.cfi_restore 4
 1525              		.cfi_restore 3
 1526              		.cfi_def_cfa_offset 0
 1527              		.loc 1 482 0
 1528 008c FFF7FEBF 		b	_port_irq_epilogue
 1529              	.LVL108:
 1530              	.L134:
 1531              		.cfi_restore_state
 1532              		.loc 1 406 0
 1533 0090 1E4B     		ldr	r3, .L174+8
 1534 0092 6442     		negs	r4, r4
 1535 0094 A4B2     		uxth	r4, r4
 1536 0096 1C80     		strh	r4, [r3]	@ movhi
 1537 0098 C2E7     		b	.L135
 1538              	.L145:
 1539              		.loc 1 455 0
ARM GAS  /var/folders/vt/qg0v_q5n5k99pnp_yg24c7s80000gn/T//ccE8gQvX.s 			page 28


 1540 009a 0028     		cmp	r0, #0
 1541 009c 25DD     		ble	.L147
 1542              		.loc 1 456 0
 1543 009e 002B     		cmp	r3, #0
 1544 00a0 25DA     		bge	.L173
 1545              	.L149:
 1546              	.LVL109:
 1547              	.LBB71:
 1548              	.LBB72:
 1549              		.loc 1 622 0
 1550 00a2 2B68     		ldr	r3, [r5]
 1551 00a4 002B     		cmp	r3, #0
 1552 00a6 EAD0     		beq	.L146
 1553              		.loc 1 646 0
 1554 00a8 1A4A     		ldr	r2, .L174+16
 1555              		.loc 1 644 0
 1556 00aa 0021     		movs	r1, #0
 1557              		.loc 1 646 0
 1558 00ac 8024     		movs	r4, #128
 1559              		.loc 1 647 0
 1560 00ae 4FF48070 		mov	r0, #256
 1561              		.loc 1 644 0
 1562 00b2 9987     		strh	r1, [r3, #60]	@ movhi
 1563              		.loc 1 645 0
 1564 00b4 A3F84010 		strh	r1, [r3, #64]	@ movhi
 1565              		.loc 1 646 0
 1566 00b8 5461     		str	r4, [r2, #20]
 1567              		.loc 1 647 0
 1568 00ba 5061     		str	r0, [r2, #20]
 1569 00bc DFE7     		b	.L146
 1570              	.LVL110:
 1571              	.L137:
 1572              	.LBE72:
 1573              	.LBE71:
 1574              		.loc 1 417 0
 1575 00be 0028     		cmp	r0, #0
 1576 00c0 05DD     		ble	.L139
 1577              		.loc 1 418 0
 1578 00c2 002B     		cmp	r3, #0
 1579 00c4 05DB     		blt	.L141
 1580              	.L170:
 1581              		.loc 1 431 0
 1582 00c6 FFF7FEFF 		bl	_vexMotorPwmSet_0
 1583              	.LVL111:
 1584              		.loc 1 432 0
 1585 00ca 3480     		strh	r4, [r6]	@ movhi
 1586 00cc BBE7     		b	.L136
 1587              	.L139:
 1588              		.loc 1 430 0
 1589 00ce 002B     		cmp	r3, #0
 1590 00d0 F9DD     		ble	.L170
 1591              	.L141:
 1592              	.LVL112:
 1593              	.LBB73:
 1594              	.LBB74:
 1595              		.loc 1 579 0
 1596 00d2 2B68     		ldr	r3, [r5]
ARM GAS  /var/folders/vt/qg0v_q5n5k99pnp_yg24c7s80000gn/T//ccE8gQvX.s 			page 29


 1597 00d4 002B     		cmp	r3, #0
 1598 00d6 B4D0     		beq	.L138
 1599              		.loc 1 603 0
 1600 00d8 0E4A     		ldr	r2, .L174+16
 1601              		.loc 1 601 0
 1602 00da 0021     		movs	r1, #0
 1603              		.loc 1 603 0
 1604 00dc 0824     		movs	r4, #8
 1605              		.loc 1 604 0
 1606 00de 1020     		movs	r0, #16
 1607              		.loc 1 601 0
 1608 00e0 9986     		strh	r1, [r3, #52]	@ movhi
 1609              		.loc 1 602 0
 1610 00e2 1987     		strh	r1, [r3, #56]	@ movhi
 1611              		.loc 1 603 0
 1612 00e4 5461     		str	r4, [r2, #20]
 1613              		.loc 1 604 0
 1614 00e6 5061     		str	r0, [r2, #20]
 1615 00e8 ABE7     		b	.L138
 1616              	.LVL113:
 1617              	.L147:
 1618              	.LBE74:
 1619              	.LBE73:
 1620              		.loc 1 468 0
 1621 00ea 002B     		cmp	r3, #0
 1622 00ec D9DC     		bgt	.L149
 1623              	.L173:
 1624              		.loc 1 469 0
 1625 00ee FFF7FEFF 		bl	_vexMotorPwmSet_9
 1626              	.LVL114:
 1627              		.loc 1 470 0
 1628 00f2 3480     		strh	r4, [r6]	@ movhi
 1629              	.LBB75:
 1630              		.loc 1 480 0
 1631 00f4 0023     		movs	r3, #0
 1632              		.syntax unified
 1633              	@ 480 "../../convex/convex/cortex/fw/vexmotor.c" 1
 1634 00f6 83F31188 		msr     BASEPRI, r3
 1635              	@ 0 "" 2
 1636              		.thumb
 1637              		.syntax unified
 1638              	.LBE75:
 1639              		.loc 1 483 0
 1640 00fa BDE8F840 		pop	{r3, r4, r5, r6, r7, lr}
 1641              		.cfi_restore 3
 1642              		.cfi_restore 4
 1643              		.cfi_restore 5
 1644              		.cfi_restore 6
 1645              		.cfi_restore 7
 1646              		.cfi_restore 14
 1647              		.cfi_def_cfa_offset 0
 1648              		.loc 1 482 0
 1649 00fe FFF7FEBF 		b	_port_irq_epilogue
 1650              	.LVL115:
 1651              	.L175:
 1652 0102 00BF     		.align	2
 1653              	.L174:
ARM GAS  /var/folders/vt/qg0v_q5n5k99pnp_yg24c7s80000gn/T//ccE8gQvX.s 			page 30


 1654 0104 00000000 		.word	.LANCHOR1
 1655 0108 00000000 		.word	.LANCHOR0
 1656 010c 00000000 		.word	.LANCHOR2
 1657 0110 00000000 		.word	.LANCHOR3
 1658 0114 00140140 		.word	1073812480
 1659 0118 00000000 		.word	.LANCHOR4
 1660 011c 00000000 		.word	.LANCHOR5
 1661              		.cfi_endproc
 1662              	.LFE78:
 1663              		.size	VectorB8, .-VectorB8
 1664              		.section	.bss.m0_cur_value,"aw",%nobits
 1665              		.align	1
 1666              		.set	.LANCHOR3,. + 0
 1667              		.type	m0_cur_value, %object
 1668              		.size	m0_cur_value, 2
 1669              	m0_cur_value:
 1670 0000 0000     		.space	2
 1671              		.section	.bss.m9_new_value,"aw",%nobits
 1672              		.align	1
 1673              		.set	.LANCHOR4,. + 0
 1674              		.type	m9_new_value, %object
 1675              		.size	m9_new_value, 2
 1676              	m9_new_value:
 1677 0000 0000     		.space	2
 1678              		.section	.bss.m9_cur_value,"aw",%nobits
 1679              		.align	1
 1680              		.set	.LANCHOR5,. + 0
 1681              		.type	m9_cur_value, %object
 1682              		.size	m9_cur_value, 2
 1683              	m9_cur_value:
 1684 0000 0000     		.space	2
 1685              		.section	.bss.vexMotors,"aw",%nobits
 1686              		.align	2
 1687              		.set	.LANCHOR0,. + 0
 1688              		.type	vexMotors, %object
 1689              		.size	vexMotors, 200
 1690              	vexMotors:
 1691 0000 00000000 		.space	200
 1691      00000000 
 1691      00000000 
 1691      00000000 
 1691      00000000 
 1692              		.section	.bss.m0_new_value,"aw",%nobits
 1693              		.align	1
 1694              		.set	.LANCHOR2,. + 0
 1695              		.type	m0_new_value, %object
 1696              		.size	m0_new_value, 2
 1697              	m0_new_value:
 1698 0000 0000     		.space	2
 1699              		.section	.rodata.str1.4,"aMS",%progbits,1
 1700              		.align	2
 1701              	.LC0:
 1702 0000 4D6F746F 		.ascii	"Motor  Speed  Position Rev   ID\015\012\000"
 1702      72202053 
 1702      70656564 
 1702      2020506F 
 1702      73697469 
ARM GAS  /var/folders/vt/qg0v_q5n5k99pnp_yg24c7s80000gn/T//ccE8gQvX.s 			page 31


 1703 0022 0000     		.space	2
 1704              	.LC1:
 1705 0024 4D5F2564 		.ascii	"M_%d  %4d %7d      \000"
 1705      20202534 
 1705      64202537 
 1705      64202020 
 1705      20202000 
 1706              	.LC2:
 1707 0038 74727565 		.ascii	"true  \000"
 1707      202000
 1708 003f 00       		.space	1
 1709              	.LC3:
 1710 0040 66616C73 		.ascii	"false \000"
 1710      652000
 1711 0047 00       		.space	1
 1712              	.LC4:
 1713 0048 25640D0A 		.ascii	"%d\015\012\000"
 1713      00
 1714 004d 000000   		.space	3
 1715              	.LC5:
 1716 0050 73657420 		.ascii	"set motor %d to %d\015\012\000"
 1716      6D6F746F 
 1716      72202564 
 1716      20746F20 
 1716      25640D0A 
 1717              		.section	.bss.PwmTimer,"aw",%nobits
 1718              		.align	2
 1719              		.set	.LANCHOR1,. + 0
 1720              		.type	PwmTimer, %object
 1721              		.size	PwmTimer, 4
 1722              	PwmTimer:
 1723 0000 00000000 		.space	4
 1724              		.text
 1725              	.Letext0:
 1726              		.file 2 "/usr/local/gcc-arm-none-eabi-5_2-2015q4/lib/gcc/arm-none-eabi/5.2.1/include/stddef.h"
 1727              		.file 3 "/usr/local/gcc-arm-none-eabi-5_2-2015q4/arm-none-eabi/include/machine/_default_types.h"
 1728              		.file 4 "/usr/local/gcc-arm-none-eabi-5_2-2015q4/arm-none-eabi/include/sys/_stdint.h"
 1729              		.file 5 "../../ChibiOS/os/ports/GCC/ARMCMx/chtypes.h"
 1730              		.file 6 "../../ChibiOS/os/kernel/include/chstreams.h"
 1731              		.file 7 "../../ChibiOS/os/hal/platforms/STM32F1xx/stm32f10x.h"
 1732              		.file 8 "../../ChibiOS/os/hal/platforms/STM32/GPIOv1/pal_lld.h"
 1733              		.file 9 "../../convex/convex/cortex/fw/vexcompat.h"
 1734              		.file 10 "../../convex/convex/cortex/fw/vexdigital.h"
 1735              		.file 11 "../../convex/convex/cortex/fw/vexmotor.h"
 1736              		.file 12 "../../convex/convex/cortex/fw/vexime.h"
 1737              		.file 13 "/usr/local/gcc-arm-none-eabi-5_2-2015q4/arm-none-eabi/include/stdlib.h"
 1738              		.file 14 "../../convex/convex/cortex/fw/vexprintf.h"
 1739              		.file 15 "../../ChibiOS/os/ports/common/ARMCMx/nvic.h"
 1740              		.file 16 "../../ChibiOS/os/ports/GCC/ARMCMx/chcore_v7m.h"
 1741              		.file 17 "../../ChibiOS/os/ports/common/ARMCMx/CMSIS/include/core_cm3.h"