ARM GAS  /var/folders/vt/qg0v_q5n5k99pnp_yg24c7s80000gn/T//ccOrtYYn.s 			page 1


   1              		.syntax unified
   2              		.cpu cortex-m3
   3              		.fpu softvfp
   4              		.eabi_attribute 20, 1
   5              		.eabi_attribute 21, 1
   6              		.eabi_attribute 23, 3
   7              		.eabi_attribute 24, 1
   8              		.eabi_attribute 25, 1
   9              		.eabi_attribute 26, 1
  10              		.eabi_attribute 30, 2
  11              		.eabi_attribute 34, 1
  12              		.eabi_attribute 18, 4
  13              		.thumb
  14              		.syntax unified
  15              		.file	"vexprintf.c"
  16              		.text
  17              	.Ltext0:
  18              		.cfi_sections	.debug_frame
  19              		.section	.text.vex_printc,"ax",%progbits
  20              		.align	2
  21              		.p2align 4,,15
  22              		.thumb
  23              		.thumb_func
  24              		.type	vex_printc, %function
  25              	vex_printc:
  26              	.LFB65:
  27              		.file 1 "../../convex/convex/cortex/fw/vexprintf.c"
  28              		.loc 1 233 0
  29              		.cfi_startproc
  30              		@ args = 0, pretend = 0, frame = 0
  31              		@ frame_needed = 0, uses_anonymous_args = 0
  32              	.LVL0:
  33              		.loc 1 235 0
  34 0000 C368     		ldr	r3, [r0, #12]
  35 0002 002B     		cmp	r3, #0
  36 0004 02DB     		blt	.L2
  37              		.loc 1 235 0 is_stmt 0 discriminator 1
  38 0006 0269     		ldr	r2, [r0, #16]
  39 0008 9342     		cmp	r3, r2
  40 000a 0BDD     		ble	.L10
  41              	.L2:
  42              		.loc 1 239 0 is_stmt 1
  43 000c 4368     		ldr	r3, [r0, #4]
  44 000e 53B1     		cbz	r3, .L4
  45              		.loc 1 240 0
  46 0010 1B68     		ldr	r3, [r3]
  47 0012 1970     		strb	r1, [r3]
  48              		.loc 1 241 0
  49 0014 4168     		ldr	r1, [r0, #4]
  50              	.LVL1:
  51              		.loc 1 242 0
  52 0016 0369     		ldr	r3, [r0, #16]
  53              		.loc 1 241 0
  54 0018 0A68     		ldr	r2, [r1]
  55              		.loc 1 242 0
  56 001a 0133     		adds	r3, r3, #1
  57              		.loc 1 241 0
ARM GAS  /var/folders/vt/qg0v_q5n5k99pnp_yg24c7s80000gn/T//ccOrtYYn.s 			page 2


  58 001c 0132     		adds	r2, r2, #1
  59 001e 0A60     		str	r2, [r1]
  60              		.loc 1 242 0
  61 0020 0361     		str	r3, [r0, #16]
  62 0022 7047     		bx	lr
  63              	.LVL2:
  64              	.L10:
  65 0024 7047     		bx	lr
  66              	.L4:
  67              		.loc 1 233 0
  68 0026 2DE9F041 		push	{r4, r5, r6, r7, r8, lr}
  69              		.cfi_def_cfa_offset 24
  70              		.cfi_offset 4, -24
  71              		.cfi_offset 5, -20
  72              		.cfi_offset 6, -16
  73              		.cfi_offset 7, -12
  74              		.cfi_offset 8, -8
  75              		.cfi_offset 14, -4
  76 002a 0446     		mov	r4, r0
  77              	.LVL3:
  78              	.LBB28:
  79              	.LBB29:
  80              		.loc 1 246 0
  81 002c 1D4D     		ldr	r5, .L13
  82 002e 806D     		ldr	r0, [r0, #88]
  83              	.LVL4:
  84 0030 EA68     		ldr	r2, [r5, #12]
  85 0032 0F46     		mov	r7, r1
  86              	.LVL5:
  87 0034 121A     		subs	r2, r2, r0
  88              		.loc 1 249 0
  89 0036 1D2A     		cmp	r2, #29
  90              		.loc 1 246 0
  91 0038 E265     		str	r2, [r4, #92]
  92              		.loc 1 249 0
  93 003a 1ED8     		bhi	.L5
  94              	.LVL6:
  95              		.loc 1 252 0
  96 003c 082A     		cmp	r2, #8
  97              		.loc 1 256 0
  98 003e B4F85430 		ldrh	r3, [r4, #84]
  99              		.loc 1 252 0
 100 0042 08D9     		bls	.L7
 101              		.loc 1 256 0
 102 0044 A3EB8203 		sub	r3, r3, r2, lsl #2
 103 0048 9BB2     		uxth	r3, r3
 104              		.loc 1 258 0
 105 004a 1904     		lsls	r1, r3, #16
 106              	.LVL7:
 107 004c 03D5     		bpl	.L7
 108              		.loc 1 263 0
 109 004e 0123     		movs	r3, #1
 110 0050 A4F85430 		strh	r3, [r4, #84]	@ movhi
 111 0054 05E0     		b	.L8
 112              	.L7:
 113 0056 0133     		adds	r3, r3, #1
 114 0058 9BB2     		uxth	r3, r3
ARM GAS  /var/folders/vt/qg0v_q5n5k99pnp_yg24c7s80000gn/T//ccOrtYYn.s 			page 3


 115 005a 802B     		cmp	r3, #128
 116 005c A4F85430 		strh	r3, [r4, #84]	@ movhi
 117 0060 0ED0     		beq	.L12
 118              	.L8:
 119              		.loc 1 281 0
 120 0062 206E     		ldr	r0, [r4, #96]
 121              		.loc 1 280 0
 122 0064 2369     		ldr	r3, [r4, #16]
 123              		.loc 1 281 0
 124 0066 0268     		ldr	r2, [r0]
 125              		.loc 1 277 0
 126 0068 ED68     		ldr	r5, [r5, #12]
 127              		.loc 1 280 0
 128 006a 0133     		adds	r3, r3, #1
 129              		.loc 1 277 0
 130 006c A565     		str	r5, [r4, #88]
 131              		.loc 1 281 0
 132 006e F9B2     		uxtb	r1, r7
 133 0070 9268     		ldr	r2, [r2, #8]
 134              		.loc 1 280 0
 135 0072 2361     		str	r3, [r4, #16]
 136              	.LBE29:
 137              	.LBE28:
 138              		.loc 1 283 0
 139 0074 BDE8F041 		pop	{r4, r5, r6, r7, r8, lr}
 140              		.cfi_remember_state
 141              		.cfi_restore 14
 142              		.cfi_restore 8
 143              		.cfi_restore 7
 144              		.cfi_restore 6
 145              		.cfi_restore 5
 146              		.cfi_restore 4
 147              		.cfi_def_cfa_offset 0
 148              	.LVL8:
 149              	.LBB31:
 150              	.LBB30:
 151              		.loc 1 281 0
 152 0078 1047     		bx	r2
 153              	.LVL9:
 154              	.L5:
 155              		.cfi_restore_state
 156              		.loc 1 274 0
 157 007a A4F85430 		strh	r3, [r4, #84]	@ movhi
 158 007e F0E7     		b	.L8
 159              	.LVL10:
 160              	.L12:
 161              		.loc 1 268 0
 162 0080 094E     		ldr	r6, .L13+4
 163 0082 0A48     		ldr	r0, .L13+8
 164 0084 06FB02F2 		mul	r2, r6, r2
 165 0088 02F5EA43 		add	r3, r2, #29952
 166 008c 2F33     		adds	r3, r3, #47
 167 008e A0FB0323 		umull	r2, r3, r0, r3
 168 0092 9809     		lsrs	r0, r3, #6
 169 0094 0130     		adds	r0, r0, #1
 170 0096 FFF7FEFF 		bl	chThdSleep
 171              	.LVL11:
ARM GAS  /var/folders/vt/qg0v_q5n5k99pnp_yg24c7s80000gn/T//ccOrtYYn.s 			page 4


 172              		.loc 1 269 0
 173 009a 0023     		movs	r3, #0
 174 009c A4F85430 		strh	r3, [r4, #84]	@ movhi
 175 00a0 DFE7     		b	.L8
 176              	.L14:
 177 00a2 00BF     		.align	2
 178              	.L13:
 179 00a4 00000000 		.word	vtlist
 180 00a8 18FCFFFF 		.word	-1000
 181 00ac D34D6210 		.word	274877907
 182              	.LBE30:
 183              	.LBE31:
 184              		.cfi_endproc
 185              	.LFE65:
 186              		.size	vex_printc, .-vex_printc
 187              		.section	.text.vex_prints,"ax",%progbits
 188              		.align	2
 189              		.p2align 4,,15
 190              		.thumb
 191              		.thumb_func
 192              		.type	vex_prints, %function
 193              	vex_prints:
 194              	.LFB66:
 195              		.loc 1 302 0
 196              		.cfi_startproc
 197              		@ args = 0, pretend = 0, frame = 0
 198              		@ frame_needed = 0, uses_anonymous_args = 0
 199              	.LVL12:
 200 0000 2DE9F041 		push	{r4, r5, r6, r7, r8, lr}
 201              		.cfi_def_cfa_offset 24
 202              		.cfi_offset 4, -24
 203              		.cfi_offset 5, -20
 204              		.cfi_offset 6, -16
 205              		.cfi_offset 7, -12
 206              		.cfi_offset 8, -8
 207              		.cfi_offset 14, -4
 208              		.loc 1 305 0
 209 0004 171E     		subs	r7, r2, #0
 210              		.loc 1 302 0
 211 0006 0646     		mov	r6, r0
 212 0008 0D46     		mov	r5, r1
 213              		.loc 1 305 0
 214 000a 3CDD     		ble	.L16
 215              	.LVL13:
 216              	.LBB32:
 217              		.loc 1 308 0 discriminator 1
 218 000c 0878     		ldrb	r0, [r1]	@ zero_extendqisi2
 219              	.LVL14:
 220 000e 90B3     		cbz	r0, .L29
 221              		.loc 1 308 0 is_stmt 0 discriminator 3
 222 0010 0022     		movs	r2, #0
 223              	.LVL15:
 224              	.L18:
 225 0012 11F8014F 		ldrb	r4, [r1, #1]!	@ zero_extendqisi2
 226              	.LVL16:
 227              		.loc 1 309 0 is_stmt 1 discriminator 3
 228 0016 0132     		adds	r2, r2, #1
ARM GAS  /var/folders/vt/qg0v_q5n5k99pnp_yg24c7s80000gn/T//ccOrtYYn.s 			page 5


 229              	.LVL17:
 230              		.loc 1 308 0 discriminator 3
 231 0018 002C     		cmp	r4, #0
 232 001a FAD1     		bne	.L18
 233              		.loc 1 310 0
 234 001c 9742     		cmp	r7, r2
 235 001e 2BDC     		bgt	.L17
 236              	.LVL18:
 237              	.L19:
 238              		.loc 1 315 0
 239 0020 13F0020F 		tst	r3, #2
 240 0024 0CBF     		ite	eq
 241 0026 4FF02008 		moveq	r8, #32
 242 002a 4FF03008 		movne	r8, #48
 243              	.LVL19:
 244              	.LBE32:
 245              		.loc 1 317 0
 246 002e 13F00103 		ands	r3, r3, #1
 247              	.LVL20:
 248 0032 23D1     		bne	.L21
 249              		.loc 1 318 0 discriminator 1
 250 0034 002C     		cmp	r4, #0
 251 0036 2746     		mov	r7, r4
 252 0038 35DD     		ble	.L32
 253              	.LVL21:
 254              	.L23:
 255              		.loc 1 319 0 discriminator 2
 256 003a 4146     		mov	r1, r8
 257 003c 3046     		mov	r0, r6
 258 003e FFF7FEFF 		bl	vex_printc
 259              	.LVL22:
 260              		.loc 1 318 0 discriminator 2
 261 0042 013F     		subs	r7, r7, #1
 262              	.LVL23:
 263 0044 F9D1     		bne	.L23
 264 0046 2878     		ldrb	r0, [r5]	@ zero_extendqisi2
 265              	.LVL24:
 266              	.L22:
 267              		.loc 1 323 0
 268 0048 0146     		mov	r1, r0
 269 004a 88B1     		cbz	r0, .L36
 270              	.LVL25:
 271              	.L25:
 272              		.loc 1 324 0 discriminator 2
 273 004c 3046     		mov	r0, r6
 274 004e FFF7FEFF 		bl	vex_printc
 275              	.LVL26:
 276              		.loc 1 323 0 discriminator 2
 277 0052 15F8011F 		ldrb	r1, [r5, #1]!	@ zero_extendqisi2
 278              	.LVL27:
 279              		.loc 1 325 0 discriminator 2
 280 0056 0134     		adds	r4, r4, #1
 281              	.LVL28:
 282              		.loc 1 323 0 discriminator 2
 283 0058 0029     		cmp	r1, #0
 284 005a F7D1     		bne	.L25
 285              	.LVL29:
ARM GAS  /var/folders/vt/qg0v_q5n5k99pnp_yg24c7s80000gn/T//ccOrtYYn.s 			page 6


 286              	.L24:
 287              		.loc 1 327 0 discriminator 1
 288 005c 002F     		cmp	r7, #0
 289 005e 07DD     		ble	.L36
 290              		.loc 1 327 0 is_stmt 0 discriminator 2
 291 0060 3D46     		mov	r5, r7
 292              	.LVL30:
 293              	.L27:
 294              		.loc 1 328 0 is_stmt 1 discriminator 2
 295 0062 4146     		mov	r1, r8
 296 0064 3046     		mov	r0, r6
 297 0066 FFF7FEFF 		bl	vex_printc
 298              	.LVL31:
 299              		.loc 1 327 0 discriminator 2
 300 006a 013D     		subs	r5, r5, #1
 301              	.LVL32:
 302 006c F9D1     		bne	.L27
 303 006e 3C44     		add	r4, r4, r7
 304              	.LVL33:
 305              	.L36:
 306              		.loc 1 332 0
 307 0070 2046     		mov	r0, r4
 308 0072 BDE8F081 		pop	{r4, r5, r6, r7, r8, pc}
 309              	.LVL34:
 310              	.L29:
 311              	.LBB33:
 312              		.loc 1 308 0
 313 0076 0246     		mov	r2, r0
 314              	.LVL35:
 315              	.L17:
 316              		.loc 1 313 0
 317 0078 BC1A     		subs	r4, r7, r2
 318              	.LVL36:
 319 007a D1E7     		b	.L19
 320              	.LVL37:
 321              	.L21:
 322              	.LBE33:
 323              		.loc 1 323 0 discriminator 1
 324 007c 0146     		mov	r1, r0
 325 007e 2746     		mov	r7, r4
 326 0080 78B1     		cbz	r0, .L43
 327              	.LVL38:
 328              	.L42:
 329              		.loc 1 303 0
 330 0082 0024     		movs	r4, #0
 331 0084 E2E7     		b	.L25
 332              	.LVL39:
 333              	.L16:
 334              		.loc 1 317 0
 335 0086 13F00104 		ands	r4, r3, #1
 336 008a 06D0     		beq	.L34
 337              		.loc 1 323 0
 338 008c 0978     		ldrb	r1, [r1]	@ zero_extendqisi2
 339              	.LVL40:
 340              		.loc 1 303 0
 341 008e 4FF02008 		mov	r8, #32
 342              		.loc 1 323 0
ARM GAS  /var/folders/vt/qg0v_q5n5k99pnp_yg24c7s80000gn/T//ccOrtYYn.s 			page 7


 343 0092 0029     		cmp	r1, #0
 344 0094 F5D1     		bne	.L42
 345              		.loc 1 303 0
 346 0096 0C46     		mov	r4, r1
 347              		.loc 1 331 0
 348 0098 EAE7     		b	.L36
 349              	.LVL41:
 350              	.L34:
 351 009a 2878     		ldrb	r0, [r5]	@ zero_extendqisi2
 352              	.LVL42:
 353              		.loc 1 303 0
 354 009c 4FF02008 		mov	r8, #32
 355 00a0 D2E7     		b	.L22
 356              	.LVL43:
 357              	.L43:
 358 00a2 0446     		mov	r4, r0
 359              	.LVL44:
 360 00a4 DAE7     		b	.L24
 361              	.LVL45:
 362              	.L32:
 363              		.loc 1 318 0
 364 00a6 1C46     		mov	r4, r3
 365              	.LVL46:
 366 00a8 CEE7     		b	.L22
 367              		.cfi_endproc
 368              	.LFE66:
 369              		.size	vex_prints, .-vex_prints
 370 00aa 00BF     		.section	.text.vex_printi,"ax",%progbits
 371              		.align	2
 372              		.p2align 4,,15
 373              		.thumb
 374              		.thumb_func
 375              		.type	vex_printi, %function
 376              	vex_printi:
 377              	.LFB67:
 378              		.loc 1 348 0
 379              		.cfi_startproc
 380              		@ args = 12, pretend = 0, frame = 16
 381              		@ frame_needed = 0, uses_anonymous_args = 0
 382              	.LVL47:
 383 0000 F0B5     		push	{r4, r5, r6, r7, lr}
 384              		.cfi_def_cfa_offset 20
 385              		.cfi_offset 4, -20
 386              		.cfi_offset 5, -16
 387              		.cfi_offset 6, -12
 388              		.cfi_offset 7, -8
 389              		.cfi_offset 14, -4
 390 0002 85B0     		sub	sp, sp, #20
 391              		.cfi_def_cfa_offset 40
 392              		.loc 1 348 0
 393 0004 1646     		mov	r6, r2
 394 0006 0AAA     		add	r2, sp, #40
 395              	.LVL48:
 396 0008 1D46     		mov	r5, r3
 397              	.LVL49:
 398 000a 92E80C40 		ldmia	r2, {r2, r3, lr}
 399              	.LVL50:
ARM GAS  /var/folders/vt/qg0v_q5n5k99pnp_yg24c7s80000gn/T//ccOrtYYn.s 			page 8


 400              		.loc 1 353 0
 401 000e 0029     		cmp	r1, #0
 402 0010 4DD0     		beq	.L74
 403 0012 0C46     		mov	r4, r1
 404 0014 0746     		mov	r7, r0
 405              		.loc 1 356 0
 406 0016 3DBB     		cbnz	r5, .L75
 407              	.L46:
 408              		.loc 1 363 0
 409 0018 0020     		movs	r0, #0
 410              	.LVL51:
 411 001a 87F82300 		strb	r0, [r7, #35]
 412              		.loc 1 362 0
 413 001e 07F12305 		add	r5, r7, #35
 414              	.LVL52:
 415              		.loc 1 365 0
 416 0022 8446     		mov	ip, r0
 417 0024 79B3     		cbz	r1, .L50
 418              	.LVL53:
 419              	.L53:
 420              		.loc 1 369 0
 421 0026 AEF13A00 		sub	r0, lr, #58
 422              	.L49:
 423              		.loc 1 367 0
 424 002a B4FBF6F1 		udiv	r1, r4, r6
 425 002e 06FB1144 		mls	r4, r6, r1, r4
 426              	.LVL54:
 427              		.loc 1 368 0
 428 0032 092C     		cmp	r4, #9
 429              		.loc 1 369 0
 430 0034 C8BF     		it	gt
 431 0036 2418     		addgt	r4, r4, r0
 432              	.LVL55:
 433              		.loc 1 370 0
 434 0038 3034     		adds	r4, r4, #48
 435              	.LVL56:
 436 003a 05F8014D 		strb	r4, [r5, #-1]!
 437              	.LVL57:
 438              		.loc 1 371 0
 439 003e 0C46     		mov	r4, r1
 440              	.LVL58:
 441              		.loc 1 365 0
 442 0040 0029     		cmp	r1, #0
 443 0042 F2D1     		bne	.L49
 444              		.loc 1 374 0
 445 0044 BCF1000F 		cmp	ip, #0
 446 0048 1DD0     		beq	.L50
 447              	.LVL59:
 448              	.L47:
 449              		.loc 1 376 0
 450 004a 22B3     		cbz	r2, .L51
 451              		.loc 1 376 0 is_stmt 0 discriminator 1
 452 004c 9907     		lsls	r1, r3, #30
 453 004e 22D5     		bpl	.L51
 454              		.loc 1 380 0 is_stmt 1
 455 0050 013A     		subs	r2, r2, #1
 456              		.loc 1 378 0
ARM GAS  /var/folders/vt/qg0v_q5n5k99pnp_yg24c7s80000gn/T//ccOrtYYn.s 			page 9


 457 0052 2D21     		movs	r1, #45
 458 0054 3846     		mov	r0, r7
 459 0056 0293     		str	r3, [sp, #8]
 460              		.loc 1 380 0
 461 0058 0192     		str	r2, [sp, #4]
 462 005a 0392     		str	r2, [sp, #12]
 463              		.loc 1 379 0
 464 005c 0124     		movs	r4, #1
 465              	.LVL60:
 466              		.loc 1 378 0
 467 005e FFF7FEFF 		bl	vex_printc
 468              	.LVL61:
 469              		.loc 1 380 0
 470 0062 019A     		ldr	r2, [sp, #4]
 471 0064 029B     		ldr	r3, [sp, #8]
 472 0066 1BE0     		b	.L52
 473              	.LVL62:
 474              	.L75:
 475              		.loc 1 356 0 discriminator 1
 476 0068 0A2E     		cmp	r6, #10
 477 006a D5D1     		bne	.L46
 478              		.loc 1 356 0 is_stmt 0 discriminator 2
 479 006c 0029     		cmp	r1, #0
 480 006e D3DA     		bge	.L46
 481              	.LVL63:
 482              		.loc 1 359 0 is_stmt 1
 483 0070 4C42     		negs	r4, r1
 484              	.LVL64:
 485              		.loc 1 363 0
 486 0072 0021     		movs	r1, #0
 487              	.LVL65:
 488 0074 80F82310 		strb	r1, [r0, #35]
 489              		.loc 1 362 0
 490 0078 00F12305 		add	r5, r0, #35
 491              	.LVL66:
 492              		.loc 1 365 0
 493 007c 002C     		cmp	r4, #0
 494 007e E4D0     		beq	.L47
 495              		.loc 1 358 0
 496 0080 4FF0010C 		mov	ip, #1
 497 0084 CFE7     		b	.L53
 498              	.LVL67:
 499              	.L50:
 500              		.loc 1 389 0
 501 0086 B868     		ldr	r0, [r7, #8]
 502 0088 B8B1     		cbz	r0, .L54
 503              	.LVL68:
 504              		.loc 1 390 0
 505 008a 2B21     		movs	r1, #43
 506              	.LVL69:
 507 008c 05F8011C 		strb	r1, [r5, #-1]
 508              	.LVL70:
 509              		.loc 1 350 0
 510 0090 0024     		movs	r4, #0
 511              	.LVL71:
 512              		.loc 1 390 0
 513 0092 013D     		subs	r5, r5, #1
ARM GAS  /var/folders/vt/qg0v_q5n5k99pnp_yg24c7s80000gn/T//ccOrtYYn.s 			page 10


 514              	.LVL72:
 515 0094 04E0     		b	.L52
 516              	.LVL73:
 517              	.L51:
 518              		.loc 1 384 0
 519 0096 2D21     		movs	r1, #45
 520 0098 05F8011C 		strb	r1, [r5, #-1]
 521              	.LVL74:
 522              		.loc 1 350 0
 523 009c 0024     		movs	r4, #0
 524              	.LVL75:
 525              		.loc 1 384 0
 526 009e 013D     		subs	r5, r5, #1
 527              	.LVL76:
 528              	.L52:
 529              		.loc 1 394 0
 530 00a0 2946     		mov	r1, r5
 531 00a2 3846     		mov	r0, r7
 532 00a4 FFF7FEFF 		bl	vex_prints
 533              	.LVL77:
 534 00a8 2044     		add	r0, r0, r4
 535              		.loc 1 395 0
 536 00aa 05B0     		add	sp, sp, #20
 537              		.cfi_remember_state
 538              		.cfi_def_cfa_offset 20
 539              		@ sp needed
 540 00ac F0BD     		pop	{r4, r5, r6, r7, pc}
 541              	.LVL78:
 542              	.L74:
 543              		.cfi_restore_state
 544              		.loc 1 354 0
 545 00ae 0449     		ldr	r1, .L76
 546              	.LVL79:
 547              		.loc 1 395 0
 548 00b0 05B0     		add	sp, sp, #20
 549              		.cfi_remember_state
 550              		.cfi_def_cfa_offset 20
 551              		@ sp needed
 552 00b2 BDE8F040 		pop	{r4, r5, r6, r7, lr}
 553              		.cfi_restore 14
 554              		.cfi_restore 7
 555              		.cfi_restore 6
 556              		.cfi_restore 5
 557              		.cfi_restore 4
 558              		.cfi_def_cfa_offset 0
 559              	.LVL80:
 560              		.loc 1 354 0
 561 00b6 FFF7FEBF 		b	vex_prints
 562              	.LVL81:
 563              	.L54:
 564              		.cfi_restore_state
 565              		.loc 1 350 0
 566 00ba 0446     		mov	r4, r0
 567 00bc F0E7     		b	.L52
 568              	.L77:
 569 00be 00BF     		.align	2
 570              	.L76:
ARM GAS  /var/folders/vt/qg0v_q5n5k99pnp_yg24c7s80000gn/T//ccOrtYYn.s 			page 11


 571 00c0 00000000 		.word	.LC0
 572              		.cfi_endproc
 573              	.LFE67:
 574              		.size	vex_printi, .-vex_printi
 575              		.global	__aeabi_dcmplt
 576              		.global	__aeabi_dadd
 577              		.global	__aeabi_ui2d
 578              		.global	__aeabi_d2uiz
 579              		.global	__aeabi_dsub
 580              		.global	__aeabi_dmul
 581              		.section	.text.vex_print,"ax",%progbits
 582              		.align	2
 583              		.p2align 4,,15
 584              		.thumb
 585              		.thumb_func
 586              		.type	vex_print, %function
 587              	vex_print:
 588              	.LFB70:
 589              		.loc 1 523 0
 590              		.cfi_startproc
 591              		@ args = 0, pretend = 0, frame = 32
 592              		@ frame_needed = 0, uses_anonymous_args = 0
 593              	.LVL82:
 594 0000 2DE9F04F 		push	{r4, r5, r6, r7, r8, r9, r10, fp, lr}
 595              		.cfi_def_cfa_offset 36
 596              		.cfi_offset 4, -36
 597              		.cfi_offset 5, -32
 598              		.cfi_offset 6, -28
 599              		.cfi_offset 7, -24
 600              		.cfi_offset 8, -20
 601              		.cfi_offset 9, -16
 602              		.cfi_offset 10, -12
 603              		.cfi_offset 11, -8
 604              		.cfi_offset 14, -4
 605              		.loc 1 530 0
 606 0004 0023     		movs	r3, #0
 607 0006 8360     		str	r3, [r0, #8]
 608              		.loc 1 531 0
 609 0008 0361     		str	r3, [r0, #16]
 610              		.loc 1 523 0
 611 000a 8246     		mov	r10, r0
 612              		.loc 1 533 0
 613 000c 0878     		ldrb	r0, [r1]	@ zero_extendqisi2
 614              	.LVL83:
 615              		.loc 1 523 0
 616 000e 8DB0     		sub	sp, sp, #52
 617              		.cfi_def_cfa_offset 88
 618              		.loc 1 533 0
 619 0010 0028     		cmp	r0, #0
 620 0012 00F0D481 		beq	.L124
 621 0016 0D46     		mov	r5, r1
 622              	.LVL84:
 623 0018 9146     		mov	r9, r2
 624 001a 9B46     		mov	fp, r3
 625              	.LVL85:
 626              	.L122:
 627              		.loc 1 535 0
ARM GAS  /var/folders/vt/qg0v_q5n5k99pnp_yg24c7s80000gn/T//ccOrtYYn.s 			page 12


 628 001c 2528     		cmp	r0, #37
 629 001e 40F07C81 		bne	.L80
 630              	.LVL86:
 631              		.loc 1 541 0
 632 0022 6B78     		ldrb	r3, [r5, #1]	@ zero_extendqisi2
 633              		.loc 1 538 0
 634 0024 6C1C     		adds	r4, r5, #1
 635              	.LVL87:
 636              		.loc 1 541 0
 637 0026 002B     		cmp	r3, #0
 638 0028 5DD0     		beq	.L79
 639              		.loc 1 543 0
 640 002a 252B     		cmp	r3, #37
 641 002c 00F0A181 		beq	.L125
 642              		.loc 1 545 0
 643 0030 2D2B     		cmp	r3, #45
 644 0032 03BF     		ittte	eq
 645 0034 AB78     		ldrbeq	r3, [r5, #2]	@ zero_extendqisi2
 646              		.loc 1 546 0
 647 0036 AC1C     		addeq	r4, r5, #2
 648              	.LVL88:
 649              		.loc 1 547 0
 650 0038 0126     		moveq	r6, #1
 651              		.loc 1 539 0
 652 003a 0026     		movne	r6, #0
 653              	.LVL89:
 654              		.loc 1 549 0
 655 003c 2B2B     		cmp	r3, #43
 656 003e 04D1     		bne	.L164
 657 0040 99E1     		b	.L168
 658              	.LVL90:
 659              	.L85:
 660              		.loc 1 553 0
 661 0042 14F8013F 		ldrb	r3, [r4, #1]!	@ zero_extendqisi2
 662              	.LVL91:
 663              		.loc 1 555 0
 664 0046 46F00206 		orr	r6, r6, #2
 665              	.LVL92:
 666              	.L164:
 667              		.loc 1 553 0
 668 004a 302B     		cmp	r3, #48
 669 004c F9D0     		beq	.L85
 670              	.LVL93:
 671              		.loc 1 559 0
 672 004e 2E2B     		cmp	r3, #46
 673 0050 00F06B81 		beq	.L86
 674              		.loc 1 559 0 is_stmt 0 discriminator 1
 675 0054 A3F13002 		sub	r2, r3, #48
 676              	.LVL94:
 677 0058 D2B2     		uxtb	r2, r2
 678 005a 092A     		cmp	r2, #9
 679 005c 40F26581 		bls	.L86
 680              		.loc 1 537 0 is_stmt 1
 681 0060 0622     		movs	r2, #6
 682 0062 0492     		str	r2, [sp, #16]
 683              		.loc 1 539 0
 684 0064 0027     		movs	r7, #0
ARM GAS  /var/folders/vt/qg0v_q5n5k99pnp_yg24c7s80000gn/T//ccOrtYYn.s 			page 13


 685              	.LVL95:
 686              	.L87:
 687              		.loc 1 591 0
 688 0066 6C2B     		cmp	r3, #108
 689 0068 04BF     		itt	eq
 690 006a 6378     		ldrbeq	r3, [r4, #1]	@ zero_extendqisi2
 691              		.loc 1 592 0
 692 006c 0134     		addeq	r4, r4, #1
 693              	.LVL96:
 694              		.loc 1 593 0
 695 006e 583B     		subs	r3, r3, #88
 696 0070 202B     		cmp	r3, #32
 697 0072 00F24681 		bhi	.L93
 698 0076 DFE813F0 		tbh	[pc, r3, lsl #1]
 699              	.L95:
 700 007a 4001     		.2byte	(.L94-.L95)/2
 701 007c 4401     		.2byte	(.L93-.L95)/2
 702 007e 4401     		.2byte	(.L93-.L95)/2
 703 0080 4401     		.2byte	(.L93-.L95)/2
 704 0082 4401     		.2byte	(.L93-.L95)/2
 705 0084 4401     		.2byte	(.L93-.L95)/2
 706 0086 4401     		.2byte	(.L93-.L95)/2
 707 0088 4401     		.2byte	(.L93-.L95)/2
 708 008a 4401     		.2byte	(.L93-.L95)/2
 709 008c 4401     		.2byte	(.L93-.L95)/2
 710 008e 4401     		.2byte	(.L93-.L95)/2
 711 0090 2D01     		.2byte	(.L96-.L95)/2
 712 0092 1C01     		.2byte	(.L97-.L95)/2
 713 0094 4401     		.2byte	(.L93-.L95)/2
 714 0096 5400     		.2byte	(.L98-.L95)/2
 715 0098 4401     		.2byte	(.L93-.L95)/2
 716 009a 4401     		.2byte	(.L93-.L95)/2
 717 009c 4401     		.2byte	(.L93-.L95)/2
 718 009e 4401     		.2byte	(.L93-.L95)/2
 719 00a0 4401     		.2byte	(.L93-.L95)/2
 720 00a2 4401     		.2byte	(.L93-.L95)/2
 721 00a4 4401     		.2byte	(.L93-.L95)/2
 722 00a6 4401     		.2byte	(.L93-.L95)/2
 723 00a8 4401     		.2byte	(.L93-.L95)/2
 724 00aa 2501     		.2byte	(.L99-.L95)/2
 725 00ac 4401     		.2byte	(.L93-.L95)/2
 726 00ae 4401     		.2byte	(.L93-.L95)/2
 727 00b0 4200     		.2byte	(.L100-.L95)/2
 728 00b2 4401     		.2byte	(.L93-.L95)/2
 729 00b4 2501     		.2byte	(.L99-.L95)/2
 730 00b6 4401     		.2byte	(.L93-.L95)/2
 731 00b8 4401     		.2byte	(.L93-.L95)/2
 732 00ba 2100     		.2byte	(.L101-.L95)/2
 733              		.p2align 1
 734              	.L101:
 735              		.loc 1 607 0
 736 00bc D9F80010 		ldr	r1, [r9]
 737 00c0 6123     		movs	r3, #97
 738              	.L167:
 739              		.loc 1 611 0
 740 00c2 0293     		str	r3, [sp, #8]
 741 00c4 0196     		str	r6, [sp, #4]
ARM GAS  /var/folders/vt/qg0v_q5n5k99pnp_yg24c7s80000gn/T//ccOrtYYn.s 			page 14


 742 00c6 0097     		str	r7, [sp]
 743 00c8 0023     		movs	r3, #0
 744 00ca 1022     		movs	r2, #16
 745              	.L166:
 746              		.loc 1 616 0
 747 00cc 5046     		mov	r0, r10
 748 00ce FFF7FEFF 		bl	vex_printi
 749              	.LVL97:
 750              		.loc 1 617 0
 751 00d2 0023     		movs	r3, #0
 752              		.loc 1 616 0
 753 00d4 09F10409 		add	r9, r9, #4
 754 00d8 8344     		add	fp, fp, r0
 755              	.LVL98:
 756              		.loc 1 617 0
 757 00da CAF80830 		str	r3, [r10, #8]
 758              	.LVL99:
 759              	.L103:
 760              		.loc 1 533 0
 761 00de 6078     		ldrb	r0, [r4, #1]	@ zero_extendqisi2
 762 00e0 651C     		adds	r5, r4, #1
 763              	.LVL100:
 764 00e2 0028     		cmp	r0, #0
 765 00e4 9AD1     		bne	.L122
 766              	.LVL101:
 767              	.L79:
 768              		.loc 1 649 0
 769 00e6 DAF80430 		ldr	r3, [r10, #4]
 770 00ea 13B1     		cbz	r3, .L123
 771              		.loc 1 650 0
 772 00ec 1B68     		ldr	r3, [r3]
 773 00ee 0022     		movs	r2, #0
 774              	.LVL102:
 775 00f0 1A70     		strb	r2, [r3]
 776              	.LVL103:
 777              	.L123:
 778              	.LBB41:
 779              	.LBB42:
 780              		.loc 1 210 0
 781 00f2 FFF7FEFF 		bl	chMtxUnlock
 782              	.LVL104:
 783              	.LBE42:
 784              	.LBE41:
 785              		.loc 1 656 0
 786 00f6 5846     		mov	r0, fp
 787 00f8 0DB0     		add	sp, sp, #52
 788              		.cfi_remember_state
 789              		.cfi_def_cfa_offset 36
 790              		@ sp needed
 791 00fa BDE8F08F 		pop	{r4, r5, r6, r7, r8, r9, r10, fp, pc}
 792              	.LVL105:
 793              	.L100:
 794              		.cfi_restore_state
 795              	.LBB43:
 796              		.loc 1 597 0
 797 00fe D9F80010 		ldr	r1, [r9]
 798              		.loc 1 598 0
ARM GAS  /var/folders/vt/qg0v_q5n5k99pnp_yg24c7s80000gn/T//ccOrtYYn.s 			page 15


 799 0102 B148     		ldr	r0, .L172
 800 0104 3346     		mov	r3, r6
 801 0106 0029     		cmp	r1, #0
 802 0108 08BF     		it	eq
 803 010a 0146     		moveq	r1, r0
 804 010c 3A46     		mov	r2, r7
 805 010e 5046     		mov	r0, r10
 806 0110 FFF7FEFF 		bl	vex_prints
 807              	.LVL106:
 808              		.loc 1 599 0
 809 0114 0023     		movs	r3, #0
 810              		.loc 1 597 0
 811 0116 09F10409 		add	r9, r9, #4
 812              	.LVL107:
 813              		.loc 1 598 0
 814 011a 8344     		add	fp, fp, r0
 815              	.LVL108:
 816              		.loc 1 599 0
 817 011c CAF80830 		str	r3, [r10, #8]
 818              	.LBE43:
 819              		.loc 1 601 0
 820 0120 DDE7     		b	.L103
 821              	.L98:
 822              		.loc 1 629 0
 823 0122 09F10709 		add	r9, r9, #7
 824 0126 29F00709 		bic	r9, r9, #7
 825 012a D9F80030 		ldr	r3, [r9]
 826              	.LBB44:
 827              	.LBB45:
 828              	.LBB46:
 829              	.LBB47:
 830              		.loc 1 413 0
 831 012e 0022     		movs	r2, #0
 832              	.LBE47:
 833              	.LBE46:
 834              	.LBE45:
 835              	.LBE44:
 836              		.loc 1 629 0
 837 0130 0693     		str	r3, [sp, #24]
 838              	.LBB62:
 839              	.LBB58:
 840              	.LBB53:
 841              	.LBB48:
 842              		.loc 1 413 0
 843 0132 1846     		mov	r0, r3
 844              	.LBE48:
 845              	.LBE53:
 846              	.LBE58:
 847              	.LBE62:
 848              		.loc 1 629 0
 849 0134 D9F80430 		ldr	r3, [r9, #4]
 850 0138 09F10809 		add	r9, r9, #8
 851              	.LVL109:
 852 013c 1D46     		mov	r5, r3
 853 013e 0593     		str	r3, [sp, #20]
 854              	.LVL110:
 855              	.LBB63:
ARM GAS  /var/folders/vt/qg0v_q5n5k99pnp_yg24c7s80000gn/T//ccOrtYYn.s 			page 16


 856              	.LBB59:
 857              	.LBB54:
 858              	.LBB49:
 859              		.loc 1 413 0
 860 0140 2946     		mov	r1, r5
 861 0142 0023     		movs	r3, #0
 862              		.loc 1 410 0
 863 0144 0AF12405 		add	r5, r10, #36
 864 0148 0795     		str	r5, [sp, #28]
 865              	.LVL111:
 866              		.loc 1 413 0
 867 014a FFF7FEFF 		bl	__aeabi_dcmplt
 868              	.LVL112:
 869 014e 0028     		cmp	r0, #0
 870 0150 40F02081 		bne	.L169
 871              		.loc 1 417 0
 872 0154 DAF80830 		ldr	r3, [r10, #8]
 873 0158 002B     		cmp	r3, #0
 874 015a 00F01881 		beq	.L131
 875              		.loc 1 418 0
 876 015e 2B23     		movs	r3, #43
 877 0160 8AF82430 		strb	r3, [r10, #36]
 878 0164 0AF12508 		add	r8, r10, #37
 879              	.LVL113:
 880              	.L106:
 881              		.loc 1 423 0
 882 0168 049D     		ldr	r5, [sp, #16]
 883 016a 072D     		cmp	r5, #7
 884 016c 0DD8     		bhi	.L107
 885              		.loc 1 424 0
 886 016e 974B     		ldr	r3, .L172+4
 887 0170 0698     		ldr	r0, [sp, #24]
 888 0172 03EBC503 		add	r3, r3, r5, lsl #3
 889 0176 0599     		ldr	r1, [sp, #20]
 890 0178 D3E90023 		ldrd	r2, [r3]
 891 017c FFF7FEFF 		bl	__aeabi_dadd
 892              	.LVL114:
 893 0180 0690     		str	r0, [sp, #24]
 894              	.LVL115:
 895 0182 0591     		str	r1, [sp, #20]
 896              	.LVL116:
 897              		.loc 1 430 0
 898 0184 002D     		cmp	r5, #0
 899 0186 00F01581 		beq	.L132
 900              	.LVL117:
 901              	.L107:
 902              		.loc 1 410 0
 903 018a 049D     		ldr	r5, [sp, #16]
 904 018c 0023     		movs	r3, #0
 905 018e 0120     		movs	r0, #1
 906              	.LVL118:
 907              	.L109:
 908              		.loc 1 430 0
 909 0190 0133     		adds	r3, r3, #1
 910              	.LVL119:
 911 0192 9BB2     		uxth	r3, r3
 912              		.loc 1 431 0
ARM GAS  /var/folders/vt/qg0v_q5n5k99pnp_yg24c7s80000gn/T//ccOrtYYn.s 			page 17


 913 0194 00EB8000 		add	r0, r0, r0, lsl #2
 914              	.LVL120:
 915              		.loc 1 430 0
 916 0198 9D42     		cmp	r5, r3
 917              		.loc 1 431 0
 918 019a 4FEA4000 		lsl	r0, r0, #1
 919              	.LVL121:
 920              		.loc 1 430 0
 921 019e F7D8     		bhi	.L109
 922 01a0 0495     		str	r5, [sp, #16]
 923              	.LVL122:
 924 01a2 FFF7FEFF 		bl	__aeabi_ui2d
 925              	.LVL123:
 926 01a6 CDE90801 		strd	r0, [sp, #32]
 927              	.LVL124:
 928              	.L108:
 929              		.loc 1 433 0
 930 01aa 0698     		ldr	r0, [sp, #24]
 931 01ac 0599     		ldr	r1, [sp, #20]
 932 01ae FFF7FEFF 		bl	__aeabi_d2uiz
 933              	.LVL125:
 934              		.loc 1 439 0
 935 01b2 0028     		cmp	r0, #0
 936 01b4 00F0E580 		beq	.L113
 937 01b8 0346     		mov	r3, r0
 938 01ba 049D     		ldr	r5, [sp, #16]
 939 01bc 0022     		movs	r2, #0
 940              	.LVL126:
 941              	.L112:
 942              		.loc 1 440 0
 943 01be 8449     		ldr	r1, .L172+8
 944 01c0 0AEB020C 		add	ip, r10, r2
 945 01c4 A1FB03E1 		umull	lr, r1, r1, r3
 946 01c8 C908     		lsrs	r1, r1, #3
 947 01ca 01EB810E 		add	lr, r1, r1, lsl #2
 948 01ce A3EB4E03 		sub	r3, r3, lr, lsl #1
 949              	.LVL127:
 950 01d2 3033     		adds	r3, r3, #48
 951 01d4 02F1010E 		add	lr, r2, #1
 952 01d8 8CF81430 		strb	r3, [ip, #20]
 953 01dc 1FFA8EF2 		uxth	r2, lr
 954              	.LVL128:
 955              		.loc 1 439 0
 956 01e0 0B46     		mov	r3, r1
 957 01e2 0029     		cmp	r1, #0
 958 01e4 EBD1     		bne	.L112
 959 01e6 0495     		str	r5, [sp, #16]
 960              		.loc 1 445 0
 961 01e8 002A     		cmp	r2, #0
 962 01ea 00F0CA80 		beq	.L113
 963 01ee 4346     		mov	r3, r8
 964              	.LVL129:
 965              	.L114:
 966              		.loc 1 449 0
 967 01f0 0AEB0201 		add	r1, r10, r2
 968 01f4 C97C     		ldrb	r1, [r1, #19]	@ zero_extendqisi2
 969              		.loc 1 450 0
ARM GAS  /var/folders/vt/qg0v_q5n5k99pnp_yg24c7s80000gn/T//ccOrtYYn.s 			page 18


 970 01f6 013A     		subs	r2, r2, #1
 971              	.LVL130:
 972 01f8 92B2     		uxth	r2, r2
 973              	.LVL131:
 974              		.loc 1 449 0
 975 01fa 03F8011B 		strb	r1, [r3], #1
 976              	.LVL132:
 977              		.loc 1 448 0
 978 01fe 002A     		cmp	r2, #0
 979 0200 F6D1     		bne	.L114
 980 0202 0495     		str	r5, [sp, #16]
 981 0204 F044     		add	r8, r8, lr
 982              	.LVL133:
 983              	.L111:
 984              		.loc 1 455 0
 985 0206 049D     		ldr	r5, [sp, #16]
 986 0208 002D     		cmp	r5, #0
 987 020a 46D0     		beq	.L115
 988              		.loc 1 434 0
 989 020c FFF7FEFF 		bl	__aeabi_ui2d
 990              	.LVL134:
 991 0210 0246     		mov	r2, r0
 992 0212 0B46     		mov	r3, r1
 993 0214 0698     		ldr	r0, [sp, #24]
 994 0216 0599     		ldr	r1, [sp, #20]
 995 0218 FFF7FEFF 		bl	__aeabi_dsub
 996              	.LVL135:
 997 021c DDE90823 		ldrd	r2, [sp, #32]
 998 0220 FFF7FEFF 		bl	__aeabi_dmul
 999              	.LVL136:
 1000 0224 FFF7FEFF 		bl	__aeabi_d2uiz
 1001              	.LVL137:
 1002              		.loc 1 457 0
 1003 0228 2E23     		movs	r3, #46
 1004 022a 88F80030 		strb	r3, [r8]
 1005              	.LVL138:
 1006              		.loc 1 462 0
 1007 022e 0028     		cmp	r0, #0
 1008 0230 00F0C780 		beq	.L134
 1009 0234 0022     		movs	r2, #0
 1010              	.LVL139:
 1011              	.L117:
 1012              		.loc 1 463 0
 1013 0236 664B     		ldr	r3, .L172+8
 1014 0238 A3FB0031 		umull	r3, r1, r3, r0
 1015 023c C908     		lsrs	r1, r1, #3
 1016 023e 01EB8103 		add	r3, r1, r1, lsl #2
 1017 0242 A0EB4300 		sub	r0, r0, r3, lsl #1
 1018              	.LVL140:
 1019 0246 531C     		adds	r3, r2, #1
 1020 0248 3030     		adds	r0, r0, #48
 1021 024a 5244     		add	r2, r2, r10
 1022              	.LVL141:
 1023 024c 9BB2     		uxth	r3, r3
 1024              	.LVL142:
 1025 024e 1075     		strb	r0, [r2, #20]
 1026 0250 1A46     		mov	r2, r3
ARM GAS  /var/folders/vt/qg0v_q5n5k99pnp_yg24c7s80000gn/T//ccOrtYYn.s 			page 19


 1027              		.loc 1 462 0
 1028 0252 0846     		mov	r0, r1
 1029 0254 0029     		cmp	r1, #0
 1030 0256 EED1     		bne	.L117
 1031              		.loc 1 469 0
 1032 0258 9D42     		cmp	r5, r3
 1033 025a 0495     		str	r5, [sp, #16]
 1034 025c 09D9     		bls	.L118
 1035              	.LVL143:
 1036              	.L116:
 1037              		.loc 1 470 0
 1038 025e 049D     		ldr	r5, [sp, #16]
 1039 0260 3020     		movs	r0, #48
 1040              	.L119:
 1041              	.LVL144:
 1042 0262 5A1C     		adds	r2, r3, #1
 1043 0264 92B2     		uxth	r2, r2
 1044              	.LVL145:
 1045 0266 0AEB0301 		add	r1, r10, r3
 1046              		.loc 1 469 0
 1047 026a 9542     		cmp	r5, r2
 1048              		.loc 1 470 0
 1049 026c 1346     		mov	r3, r2
 1050 026e 0875     		strb	r0, [r1, #20]
 1051              		.loc 1 469 0
 1052 0270 F7D8     		bhi	.L119
 1053              	.LVL146:
 1054              	.L118:
 1055              		.loc 1 474 0
 1056 0272 002A     		cmp	r2, #0
 1057 0274 00F09880 		beq	.L170
 1058              		.loc 1 457 0
 1059 0278 08F10108 		add	r8, r8, #1
 1060              	.LVL147:
 1061 027c 4146     		mov	r1, r8
 1062 027e 1346     		mov	r3, r2
 1063              	.LVL148:
 1064              	.L121:
 1065              		.loc 1 478 0
 1066 0280 0AEB0300 		add	r0, r10, r3
 1067 0284 C07C     		ldrb	r0, [r0, #19]	@ zero_extendqisi2
 1068              		.loc 1 479 0
 1069 0286 013B     		subs	r3, r3, #1
 1070              	.LVL149:
 1071 0288 9BB2     		uxth	r3, r3
 1072              	.LVL150:
 1073              		.loc 1 478 0
 1074 028a 01F8010B 		strb	r0, [r1], #1
 1075              	.LVL151:
 1076              		.loc 1 477 0
 1077 028e 002B     		cmp	r3, #0
 1078 0290 F6D1     		bne	.L121
 1079 0292 531E     		subs	r3, r2, #1
 1080              	.LVL152:
 1081 0294 9BB2     		uxth	r3, r3
 1082 0296 0133     		adds	r3, r3, #1
 1083 0298 9844     		add	r8, r8, r3
ARM GAS  /var/folders/vt/qg0v_q5n5k99pnp_yg24c7s80000gn/T//ccOrtYYn.s 			page 20


 1084              	.LVL153:
 1085              	.L115:
 1086              		.loc 1 485 0
 1087 029a 0025     		movs	r5, #0
 1088              	.LBE49:
 1089              	.LBE54:
 1090              		.loc 1 507 0
 1091 029c 3346     		mov	r3, r6
 1092 029e 3A46     		mov	r2, r7
 1093 02a0 0799     		ldr	r1, [sp, #28]
 1094              	.LBB55:
 1095              	.LBB50:
 1096              		.loc 1 485 0
 1097 02a2 88F80050 		strb	r5, [r8]
 1098              	.LVL154:
 1099              	.LBE50:
 1100              	.LBE55:
 1101              		.loc 1 507 0
 1102 02a6 5046     		mov	r0, r10
 1103 02a8 FFF7FEFF 		bl	vex_prints
 1104              	.LVL155:
 1105              	.LBE59:
 1106              	.LBE63:
 1107              		.loc 1 630 0
 1108 02ac CAF80850 		str	r5, [r10, #8]
 1109              		.loc 1 632 0
 1110 02b0 15E7     		b	.L103
 1111              	.LVL156:
 1112              	.L97:
 1113              		.loc 1 603 0
 1114 02b2 6123     		movs	r3, #97
 1115 02b4 D9F80010 		ldr	r1, [r9]
 1116 02b8 0293     		str	r3, [sp, #8]
 1117 02ba 0196     		str	r6, [sp, #4]
 1118 02bc 0097     		str	r7, [sp]
 1119 02be 0123     		movs	r3, #1
 1120              	.L165:
 1121              		.loc 1 616 0
 1122 02c0 0A22     		movs	r2, #10
 1123 02c2 03E7     		b	.L166
 1124              	.L99:
 1125 02c4 6123     		movs	r3, #97
 1126 02c6 D9F80010 		ldr	r1, [r9]
 1127 02ca 0293     		str	r3, [sp, #8]
 1128 02cc 0196     		str	r6, [sp, #4]
 1129 02ce 0097     		str	r7, [sp]
 1130 02d0 0023     		movs	r3, #0
 1131 02d2 F5E7     		b	.L165
 1132              	.L96:
 1133              		.loc 1 621 0
 1134 02d4 D9F80050 		ldr	r5, [r9]
 1135              		.loc 1 623 0
 1136 02d8 3346     		mov	r3, r6
 1137 02da 3A46     		mov	r2, r7
 1138              		.loc 1 622 0
 1139 02dc 0026     		movs	r6, #0
 1140              	.LVL157:
ARM GAS  /var/folders/vt/qg0v_q5n5k99pnp_yg24c7s80000gn/T//ccOrtYYn.s 			page 21


 1141              		.loc 1 623 0
 1142 02de 0BA9     		add	r1, sp, #44
 1143 02e0 5046     		mov	r0, r10
 1144              		.loc 1 621 0
 1145 02e2 8DF82C50 		strb	r5, [sp, #44]
 1146              		.loc 1 622 0
 1147 02e6 8DF82D60 		strb	r6, [sp, #45]
 1148              		.loc 1 623 0
 1149 02ea FFF7FEFF 		bl	vex_prints
 1150              	.LVL158:
 1151              		.loc 1 621 0
 1152 02ee 09F10409 		add	r9, r9, #4
 1153              		.loc 1 623 0
 1154 02f2 8344     		add	fp, fp, r0
 1155              	.LVL159:
 1156              		.loc 1 624 0
 1157 02f4 CAF80860 		str	r6, [r10, #8]
 1158              		.loc 1 625 0
 1159 02f8 F1E6     		b	.L103
 1160              	.LVL160:
 1161              	.L94:
 1162              		.loc 1 611 0
 1163 02fa D9F80010 		ldr	r1, [r9]
 1164 02fe 4123     		movs	r3, #65
 1165 0300 DFE6     		b	.L167
 1166              	.L93:
 1167              		.loc 1 635 0
 1168 0302 2521     		movs	r1, #37
 1169 0304 5046     		mov	r0, r10
 1170 0306 FFF7FEFF 		bl	vex_printc
 1171              	.LVL161:
 1172              		.loc 1 636 0
 1173 030a 2178     		ldrb	r1, [r4]	@ zero_extendqisi2
 1174 030c 5046     		mov	r0, r10
 1175 030e FFF7FEFF 		bl	vex_printc
 1176              	.LVL162:
 1177              		.loc 1 637 0
 1178 0312 0023     		movs	r3, #0
 1179 0314 CAF80830 		str	r3, [r10, #8]
 1180              		.loc 1 638 0
 1181 0318 E1E6     		b	.L103
 1182              	.LVL163:
 1183              	.L80:
 1184              		.loc 1 535 0
 1185 031a 2C46     		mov	r4, r5
 1186 031c 2978     		ldrb	r1, [r5]	@ zero_extendqisi2
 1187              	.LVL164:
 1188              	.L81:
 1189              		.loc 1 644 0
 1190 031e 5046     		mov	r0, r10
 1191 0320 FFF7FEFF 		bl	vex_printc
 1192              	.LVL165:
 1193              		.loc 1 645 0
 1194 0324 0BF1010B 		add	fp, fp, #1
 1195              	.LVL166:
 1196 0328 D9E6     		b	.L103
 1197              	.LVL167:
ARM GAS  /var/folders/vt/qg0v_q5n5k99pnp_yg24c7s80000gn/T//ccOrtYYn.s 			page 22


 1198              	.L86:
 1199              		.loc 1 565 0
 1200 032a 0621     		movs	r1, #6
 1201 032c 0D46     		mov	r5, r1
 1202 032e 3146     		mov	r1, r6
 1203 0330 0027     		movs	r7, #0
 1204 0332 621C     		adds	r2, r4, #1
 1205              	.LVL168:
 1206 0334 3E46     		mov	r6, r7
 1207              	.LVL169:
 1208 0336 8846     		mov	r8, r1
 1209 0338 03E0     		b	.L88
 1210              	.LVL170:
 1211              	.L171:
 1212              		.loc 1 575 0
 1213 033a 00EB4C05 		add	r5, r0, ip, lsl #1
 1214              	.LVL171:
 1215              	.L89:
 1216 033e 12F8013B 		ldrb	r3, [r2], #1	@ zero_extendqisi2
 1217              	.L88:
 1218              		.loc 1 570 0
 1219 0342 A3F13001 		sub	r1, r3, #48
 1220              		.loc 1 563 0
 1221 0346 2E2B     		cmp	r3, #46
 1222              		.loc 1 570 0
 1223 0348 C8B2     		uxtb	r0, r1
 1224 034a 02F1FF34 		add	r4, r2, #-1
 1225              	.LVL172:
 1226              		.loc 1 563 0
 1227 034e 0AD0     		beq	.L129
 1228              		.loc 1 570 0
 1229 0350 0928     		cmp	r0, #9
 1230              		.loc 1 574 0
 1231 0352 05EB850C 		add	ip, r5, r5, lsl #2
 1232              	.LVL173:
 1233              		.loc 1 579 0
 1234 0356 07EB870E 		add	lr, r7, r7, lsl #2
 1235              	.LVL174:
 1236              		.loc 1 570 0
 1237 035a 07D8     		bhi	.L162
 1238              		.loc 1 572 0
 1239 035c 002E     		cmp	r6, #0
 1240 035e ECD1     		bne	.L171
 1241              		.loc 1 580 0
 1242 0360 01EB4E07 		add	r7, r1, lr, lsl #1
 1243              	.LVL175:
 1244 0364 EBE7     		b	.L89
 1245              	.LVL176:
 1246              	.L129:
 1247              		.loc 1 566 0
 1248 0366 0025     		movs	r5, #0
 1249              	.LVL177:
 1250              		.loc 1 565 0
 1251 0368 0126     		movs	r6, #1
 1252              	.LVL178:
 1253 036a E8E7     		b	.L89
 1254              	.LVL179:
ARM GAS  /var/folders/vt/qg0v_q5n5k99pnp_yg24c7s80000gn/T//ccOrtYYn.s 			page 23


 1255              	.L162:
 1256 036c 0495     		str	r5, [sp, #16]
 1257 036e 4646     		mov	r6, r8
 1258              	.LVL180:
 1259 0370 79E6     		b	.L87
 1260              	.LVL181:
 1261              	.L125:
 1262 0372 0146     		mov	r1, r0
 1263 0374 D3E7     		b	.L81
 1264              	.LVL182:
 1265              	.L168:
 1266              		.loc 1 551 0
 1267 0376 0123     		movs	r3, #1
 1268 0378 CAF80830 		str	r3, [r10, #8]
 1269 037c 6378     		ldrb	r3, [r4, #1]	@ zero_extendqisi2
 1270              		.loc 1 550 0
 1271 037e 0134     		adds	r4, r4, #1
 1272              	.LVL183:
 1273 0380 63E6     		b	.L164
 1274              	.LVL184:
 1275              	.L113:
 1276              	.LBB64:
 1277              	.LBB60:
 1278              	.LBB56:
 1279              	.LBB51:
 1280              		.loc 1 446 0
 1281 0382 3023     		movs	r3, #48
 1282 0384 88F80030 		strb	r3, [r8]
 1283 0388 08F10108 		add	r8, r8, #1
 1284              	.LVL185:
 1285 038c 3BE7     		b	.L111
 1286              	.LVL186:
 1287              	.L131:
 1288              		.loc 1 410 0
 1289 038e DDF81C80 		ldr	r8, [sp, #28]
 1290 0392 E9E6     		b	.L106
 1291              	.L169:
 1292              		.loc 1 415 0
 1293 0394 059A     		ldr	r2, [sp, #20]
 1294              		.loc 1 414 0
 1295 0396 2D23     		movs	r3, #45
 1296              		.loc 1 415 0
 1297 0398 02F10042 		add	r2, r2, #-2147483648
 1298 039c 0592     		str	r2, [sp, #20]
 1299              		.loc 1 414 0
 1300 039e 8AF82430 		strb	r3, [r10, #36]
 1301 03a2 0AF12508 		add	r8, r10, #37
 1302              	.LVL187:
 1303 03a6 DFE6     		b	.L106
 1304              	.LVL188:
 1305              	.L170:
 1306              		.loc 1 475 0
 1307 03a8 3023     		movs	r3, #48
 1308 03aa 88F80130 		strb	r3, [r8, #1]
 1309 03ae 08F10208 		add	r8, r8, #2
 1310              	.LVL189:
 1311 03b2 72E7     		b	.L115
ARM GAS  /var/folders/vt/qg0v_q5n5k99pnp_yg24c7s80000gn/T//ccOrtYYn.s 			page 24


 1312              	.LVL190:
 1313              	.L132:
 1314              		.loc 1 430 0
 1315 03b4 074B     		ldr	r3, .L172+12
 1316 03b6 0022     		movs	r2, #0
 1317 03b8 CDE90823 		strd	r2, [sp, #32]
 1318 03bc F5E6     		b	.L108
 1319              	.LVL191:
 1320              	.L124:
 1321              	.LBE51:
 1322              	.LBE56:
 1323              	.LBE60:
 1324              	.LBE64:
 1325              		.loc 1 527 0
 1326 03be 8346     		mov	fp, r0
 1327 03c0 91E6     		b	.L79
 1328              	.LVL192:
 1329              	.L134:
 1330              	.LBB65:
 1331              	.LBB61:
 1332              	.LBB57:
 1333              	.LBB52:
 1334              		.loc 1 461 0
 1335 03c2 0346     		mov	r3, r0
 1336 03c4 4BE7     		b	.L116
 1337              	.L173:
 1338 03c6 00BF     		.align	2
 1339              	.L172:
 1340 03c8 04000000 		.word	.LC1
 1341 03cc 00000000 		.word	.LANCHOR0
 1342 03d0 CDCCCCCC 		.word	-858993459
 1343 03d4 0000F03F 		.word	1072693248
 1344              	.LBE52:
 1345              	.LBE57:
 1346              	.LBE61:
 1347              	.LBE65:
 1348              		.cfi_endproc
 1349              	.LFE70:
 1350              		.size	vex_print, .-vex_print
 1351              		.section	.text.vex_printf,"ax",%progbits
 1352              		.align	2
 1353              		.p2align 4,,15
 1354              		.global	vex_printf
 1355              		.thumb
 1356              		.thumb_func
 1357              		.type	vex_printf, %function
 1358              	vex_printf:
 1359              	.LFB71:
 1360              		.loc 1 668 0
 1361              		.cfi_startproc
 1362              		@ args = 4, pretend = 16, frame = 8
 1363              		@ frame_needed = 0, uses_anonymous_args = 1
 1364              	.LVL193:
 1365 0000 0FB4     		push	{r0, r1, r2, r3}
 1366              		.cfi_def_cfa_offset 16
 1367              		.cfi_offset 0, -16
 1368              		.cfi_offset 1, -12
ARM GAS  /var/folders/vt/qg0v_q5n5k99pnp_yg24c7s80000gn/T//ccOrtYYn.s 			page 25


 1369              		.cfi_offset 2, -8
 1370              		.cfi_offset 3, -4
 1371 0002 F0B5     		push	{r4, r5, r6, r7, lr}
 1372              		.cfi_def_cfa_offset 36
 1373              		.cfi_offset 4, -36
 1374              		.cfi_offset 5, -32
 1375              		.cfi_offset 6, -28
 1376              		.cfi_offset 7, -24
 1377              		.cfi_offset 14, -20
 1378              	.LBB66:
 1379              	.LBB67:
 1380              		.loc 1 177 0
 1381 0004 124C     		ldr	r4, .L179
 1382              	.LBE67:
 1383              	.LBE66:
 1384              		.loc 1 668 0
 1385 0006 83B0     		sub	sp, sp, #12
 1386              		.cfi_def_cfa_offset 48
 1387              	.LBB70:
 1388              	.LBB68:
 1389              		.loc 1 177 0
 1390 0008 2568     		ldr	r5, [r4]
 1391 000a ADB1     		cbz	r5, .L177
 1392 000c 114E     		ldr	r6, .L179+4
 1393              	.L175:
 1394              		.loc 1 193 0
 1395 000e 1248     		ldr	r0, .L179+8
 1396 0010 FFF7FEFF 		bl	chMtxLock
 1397              	.LVL194:
 1398              	.LBE68:
 1399              	.LBE70:
 1400              		.loc 1 677 0
 1401 0014 09AB     		add	r3, sp, #36
 1402              		.loc 1 678 0
 1403 0016 1A46     		mov	r2, r3
 1404              		.loc 1 673 0
 1405 0018 0027     		movs	r7, #0
 1406              		.loc 1 674 0
 1407 001a 4FF0FF35 		mov	r5, #-1
 1408              		.loc 1 678 0
 1409 001e 0899     		ldr	r1, [sp, #32]
 1410 0020 0B48     		ldr	r0, .L179
 1411              		.loc 1 675 0
 1412 0022 2666     		str	r6, [r4, #96]
 1413              		.loc 1 677 0
 1414 0024 0193     		str	r3, [sp, #4]
 1415              		.loc 1 673 0
 1416 0026 6760     		str	r7, [r4, #4]
 1417              		.loc 1 674 0
 1418 0028 E560     		str	r5, [r4, #12]
 1419              		.loc 1 678 0
 1420 002a FFF7FEFF 		bl	vex_print
 1421              	.LVL195:
 1422              		.loc 1 679 0
 1423 002e 03B0     		add	sp, sp, #12
 1424              		.cfi_remember_state
 1425              		.cfi_def_cfa_offset 36
ARM GAS  /var/folders/vt/qg0v_q5n5k99pnp_yg24c7s80000gn/T//ccOrtYYn.s 			page 26


 1426              		@ sp needed
 1427 0030 BDE8F040 		pop	{r4, r5, r6, r7, lr}
 1428              		.cfi_restore 14
 1429              		.cfi_restore 7
 1430              		.cfi_restore 6
 1431              		.cfi_restore 5
 1432              		.cfi_restore 4
 1433              		.cfi_def_cfa_offset 16
 1434 0034 04B0     		add	sp, sp, #16
 1435              		.cfi_restore 3
 1436              		.cfi_restore 2
 1437              		.cfi_restore 1
 1438              		.cfi_restore 0
 1439              		.cfi_def_cfa_offset 0
 1440 0036 7047     		bx	lr
 1441              	.LVL196:
 1442              	.L177:
 1443              		.cfi_restore_state
 1444              	.LBB71:
 1445              	.LBB69:
 1446              		.loc 1 179 0
 1447 0038 2046     		mov	r0, r4
 1448 003a 0123     		movs	r3, #1
 1449              		.loc 1 189 0
 1450 003c 054E     		ldr	r6, .L179+4
 1451              		.loc 1 179 0
 1452 003e 40F8443B 		str	r3, [r0], #68
 1453              		.loc 1 182 0
 1454 0042 FFF7FEFF 		bl	chMtxInit
 1455              	.LVL197:
 1456              		.loc 1 187 0
 1457 0046 A4F85450 		strh	r5, [r4, #84]	@ movhi
 1458              		.loc 1 188 0
 1459 004a A565     		str	r5, [r4, #88]
 1460              		.loc 1 189 0
 1461 004c 2666     		str	r6, [r4, #96]
 1462 004e DEE7     		b	.L175
 1463              	.L180:
 1464              		.align	2
 1465              	.L179:
 1466 0050 00000000 		.word	.LANCHOR1
 1467 0054 00000000 		.word	SD1
 1468 0058 44000000 		.word	.LANCHOR1+68
 1469              	.LBE69:
 1470              	.LBE71:
 1471              		.cfi_endproc
 1472              	.LFE71:
 1473              		.size	vex_printf, .-vex_printf
 1474              		.section	.text.vex_chprintf,"ax",%progbits
 1475              		.align	2
 1476              		.p2align 4,,15
 1477              		.global	vex_chprintf
 1478              		.thumb
 1479              		.thumb_func
 1480              		.type	vex_chprintf, %function
 1481              	vex_chprintf:
 1482              	.LFB72:
ARM GAS  /var/folders/vt/qg0v_q5n5k99pnp_yg24c7s80000gn/T//ccOrtYYn.s 			page 27


 1483              		.loc 1 692 0
 1484              		.cfi_startproc
 1485              		@ args = 4, pretend = 12, frame = 8
 1486              		@ frame_needed = 0, uses_anonymous_args = 1
 1487              	.LVL198:
 1488 0000 0EB4     		push	{r1, r2, r3}
 1489              		.cfi_def_cfa_offset 12
 1490              		.cfi_offset 1, -12
 1491              		.cfi_offset 2, -8
 1492              		.cfi_offset 3, -4
 1493 0002 F0B5     		push	{r4, r5, r6, r7, lr}
 1494              		.cfi_def_cfa_offset 32
 1495              		.cfi_offset 4, -32
 1496              		.cfi_offset 5, -28
 1497              		.cfi_offset 6, -24
 1498              		.cfi_offset 7, -20
 1499              		.cfi_offset 14, -16
 1500              	.LBB72:
 1501              	.LBB73:
 1502              		.loc 1 177 0
 1503 0004 124C     		ldr	r4, .L184
 1504              	.LBE73:
 1505              	.LBE72:
 1506              		.loc 1 692 0
 1507 0006 82B0     		sub	sp, sp, #8
 1508              		.cfi_def_cfa_offset 40
 1509              	.LBB76:
 1510              	.LBB74:
 1511              		.loc 1 177 0
 1512 0008 2568     		ldr	r5, [r4]
 1513              	.LBE74:
 1514              	.LBE76:
 1515              		.loc 1 692 0
 1516 000a 0746     		mov	r7, r0
 1517              	.LBB77:
 1518              	.LBB75:
 1519              		.loc 1 177 0
 1520 000c 55B9     		cbnz	r5, .L182
 1521              		.loc 1 179 0
 1522 000e 2046     		mov	r0, r4
 1523              	.LVL199:
 1524 0010 0123     		movs	r3, #1
 1525 0012 40F8443B 		str	r3, [r0], #68
 1526              		.loc 1 182 0
 1527 0016 FFF7FEFF 		bl	chMtxInit
 1528              	.LVL200:
 1529              		.loc 1 189 0
 1530 001a 0E4B     		ldr	r3, .L184+4
 1531              		.loc 1 187 0
 1532 001c A4F85450 		strh	r5, [r4, #84]	@ movhi
 1533              		.loc 1 188 0
 1534 0020 A565     		str	r5, [r4, #88]
 1535              		.loc 1 189 0
 1536 0022 2366     		str	r3, [r4, #96]
 1537              	.L182:
 1538              		.loc 1 193 0
 1539 0024 0C48     		ldr	r0, .L184+8
ARM GAS  /var/folders/vt/qg0v_q5n5k99pnp_yg24c7s80000gn/T//ccOrtYYn.s 			page 28


 1540 0026 FFF7FEFF 		bl	chMtxLock
 1541              	.LVL201:
 1542              	.LBE75:
 1543              	.LBE77:
 1544              		.loc 1 701 0
 1545 002a 08AB     		add	r3, sp, #32
 1546              		.loc 1 702 0
 1547 002c 1A46     		mov	r2, r3
 1548              		.loc 1 697 0
 1549 002e 0026     		movs	r6, #0
 1550              		.loc 1 698 0
 1551 0030 4FF0FF35 		mov	r5, #-1
 1552              		.loc 1 702 0
 1553 0034 0799     		ldr	r1, [sp, #28]
 1554 0036 0648     		ldr	r0, .L184
 1555              		.loc 1 699 0
 1556 0038 2766     		str	r7, [r4, #96]
 1557              		.loc 1 701 0
 1558 003a 0193     		str	r3, [sp, #4]
 1559              		.loc 1 697 0
 1560 003c 6660     		str	r6, [r4, #4]
 1561              		.loc 1 698 0
 1562 003e E560     		str	r5, [r4, #12]
 1563              		.loc 1 702 0
 1564 0040 FFF7FEFF 		bl	vex_print
 1565              	.LVL202:
 1566              		.loc 1 703 0
 1567 0044 02B0     		add	sp, sp, #8
 1568              		.cfi_def_cfa_offset 32
 1569              		@ sp needed
 1570 0046 BDE8F040 		pop	{r4, r5, r6, r7, lr}
 1571              		.cfi_restore 14
 1572              		.cfi_restore 7
 1573              		.cfi_restore 6
 1574              		.cfi_restore 5
 1575              		.cfi_restore 4
 1576              		.cfi_def_cfa_offset 12
 1577              	.LVL203:
 1578 004a 03B0     		add	sp, sp, #12
 1579              		.cfi_restore 3
 1580              		.cfi_restore 2
 1581              		.cfi_restore 1
 1582              		.cfi_def_cfa_offset 0
 1583 004c 7047     		bx	lr
 1584              	.L185:
 1585 004e 00BF     		.align	2
 1586              	.L184:
 1587 0050 00000000 		.word	.LANCHOR1
 1588 0054 00000000 		.word	SD1
 1589 0058 44000000 		.word	.LANCHOR1+68
 1590              		.cfi_endproc
 1591              	.LFE72:
 1592              		.size	vex_chprintf, .-vex_chprintf
 1593              		.section	.text.vex_vprintf,"ax",%progbits
 1594              		.align	2
 1595              		.p2align 4,,15
 1596              		.global	vex_vprintf
ARM GAS  /var/folders/vt/qg0v_q5n5k99pnp_yg24c7s80000gn/T//ccOrtYYn.s 			page 29


 1597              		.thumb
 1598              		.thumb_func
 1599              		.type	vex_vprintf, %function
 1600              	vex_vprintf:
 1601              	.LFB73:
 1602              		.loc 1 716 0
 1603              		.cfi_startproc
 1604              		@ args = 0, pretend = 0, frame = 0
 1605              		@ frame_needed = 0, uses_anonymous_args = 0
 1606              	.LVL204:
 1607 0000 2DE9F041 		push	{r4, r5, r6, r7, r8, lr}
 1608              		.cfi_def_cfa_offset 24
 1609              		.cfi_offset 4, -24
 1610              		.cfi_offset 5, -20
 1611              		.cfi_offset 6, -16
 1612              		.cfi_offset 7, -12
 1613              		.cfi_offset 8, -8
 1614              		.cfi_offset 14, -4
 1615              	.LBB78:
 1616              	.LBB79:
 1617              		.loc 1 177 0
 1618 0004 104C     		ldr	r4, .L191
 1619              	.LBE79:
 1620              	.LBE78:
 1621              		.loc 1 716 0
 1622 0006 0746     		mov	r7, r0
 1623              	.LBB83:
 1624              	.LBB80:
 1625              		.loc 1 177 0
 1626 0008 2568     		ldr	r5, [r4]
 1627              	.LBE80:
 1628              	.LBE83:
 1629              		.loc 1 716 0
 1630 000a 8846     		mov	r8, r1
 1631              	.LBB84:
 1632              	.LBB81:
 1633              		.loc 1 177 0
 1634 000c 85B1     		cbz	r5, .L189
 1635 000e 0F4E     		ldr	r6, .L191+4
 1636              	.LVL205:
 1637              	.L187:
 1638              		.loc 1 193 0
 1639 0010 0F48     		ldr	r0, .L191+8
 1640 0012 FFF7FEFF 		bl	chMtxLock
 1641              	.LVL206:
 1642              	.LBE81:
 1643              	.LBE84:
 1644              		.loc 1 719 0
 1645 0016 0025     		movs	r5, #0
 1646              		.loc 1 720 0
 1647 0018 4FF0FF33 		mov	r3, #-1
 1648              	.LVL207:
 1649              		.loc 1 723 0
 1650 001c 4246     		mov	r2, r8
 1651 001e 3946     		mov	r1, r7
 1652              		.loc 1 721 0
 1653 0020 2666     		str	r6, [r4, #96]
ARM GAS  /var/folders/vt/qg0v_q5n5k99pnp_yg24c7s80000gn/T//ccOrtYYn.s 			page 30


 1654              		.loc 1 719 0
 1655 0022 6560     		str	r5, [r4, #4]
 1656              		.loc 1 720 0
 1657 0024 E360     		str	r3, [r4, #12]
 1658              		.loc 1 723 0
 1659 0026 0848     		ldr	r0, .L191
 1660              		.loc 1 724 0
 1661 0028 BDE8F041 		pop	{r4, r5, r6, r7, r8, lr}
 1662              		.cfi_remember_state
 1663              		.cfi_restore 14
 1664              		.cfi_restore 8
 1665              		.cfi_restore 7
 1666              		.cfi_restore 6
 1667              		.cfi_restore 5
 1668              		.cfi_restore 4
 1669              		.cfi_def_cfa_offset 0
 1670              	.LVL208:
 1671              		.loc 1 723 0
 1672 002c FFF7FEBF 		b	vex_print
 1673              	.LVL209:
 1674              	.L189:
 1675              		.cfi_restore_state
 1676              	.LBB85:
 1677              	.LBB82:
 1678              		.loc 1 179 0
 1679 0030 2046     		mov	r0, r4
 1680              	.LVL210:
 1681 0032 0123     		movs	r3, #1
 1682              		.loc 1 189 0
 1683 0034 054E     		ldr	r6, .L191+4
 1684              		.loc 1 179 0
 1685 0036 40F8443B 		str	r3, [r0], #68
 1686              		.loc 1 182 0
 1687 003a FFF7FEFF 		bl	chMtxInit
 1688              	.LVL211:
 1689              		.loc 1 187 0
 1690 003e A4F85450 		strh	r5, [r4, #84]	@ movhi
 1691              		.loc 1 188 0
 1692 0042 A565     		str	r5, [r4, #88]
 1693              		.loc 1 189 0
 1694 0044 2666     		str	r6, [r4, #96]
 1695 0046 E3E7     		b	.L187
 1696              	.L192:
 1697              		.align	2
 1698              	.L191:
 1699 0048 00000000 		.word	.LANCHOR1
 1700 004c 00000000 		.word	SD1
 1701 0050 44000000 		.word	.LANCHOR1+68
 1702              	.LBE82:
 1703              	.LBE85:
 1704              		.cfi_endproc
 1705              	.LFE73:
 1706              		.size	vex_vprintf, .-vex_vprintf
 1707              		.section	.text.vex_vchprintf,"ax",%progbits
 1708              		.align	2
 1709              		.p2align 4,,15
 1710              		.global	vex_vchprintf
ARM GAS  /var/folders/vt/qg0v_q5n5k99pnp_yg24c7s80000gn/T//ccOrtYYn.s 			page 31


 1711              		.thumb
 1712              		.thumb_func
 1713              		.type	vex_vchprintf, %function
 1714              	vex_vchprintf:
 1715              	.LFB74:
 1716              		.loc 1 739 0
 1717              		.cfi_startproc
 1718              		@ args = 0, pretend = 0, frame = 0
 1719              		@ frame_needed = 0, uses_anonymous_args = 0
 1720              	.LVL212:
 1721 0000 2DE9F041 		push	{r4, r5, r6, r7, r8, lr}
 1722              		.cfi_def_cfa_offset 24
 1723              		.cfi_offset 4, -24
 1724              		.cfi_offset 5, -20
 1725              		.cfi_offset 6, -16
 1726              		.cfi_offset 7, -12
 1727              		.cfi_offset 8, -8
 1728              		.cfi_offset 14, -4
 1729              	.LBB86:
 1730              	.LBB87:
 1731              		.loc 1 177 0
 1732 0004 104C     		ldr	r4, .L196
 1733              	.LBE87:
 1734              	.LBE86:
 1735              		.loc 1 739 0
 1736 0006 0646     		mov	r6, r0
 1737              	.LBB90:
 1738              	.LBB88:
 1739              		.loc 1 177 0
 1740 0008 2568     		ldr	r5, [r4]
 1741              	.LBE88:
 1742              	.LBE90:
 1743              		.loc 1 739 0
 1744 000a 0F46     		mov	r7, r1
 1745 000c 9046     		mov	r8, r2
 1746              	.LBB91:
 1747              	.LBB89:
 1748              		.loc 1 177 0
 1749 000e 55B9     		cbnz	r5, .L194
 1750              		.loc 1 179 0
 1751 0010 2046     		mov	r0, r4
 1752              	.LVL213:
 1753 0012 0123     		movs	r3, #1
 1754 0014 40F8443B 		str	r3, [r0], #68
 1755              		.loc 1 182 0
 1756 0018 FFF7FEFF 		bl	chMtxInit
 1757              	.LVL214:
 1758              		.loc 1 189 0
 1759 001c 0B4B     		ldr	r3, .L196+4
 1760              		.loc 1 187 0
 1761 001e A4F85450 		strh	r5, [r4, #84]	@ movhi
 1762              		.loc 1 188 0
 1763 0022 A565     		str	r5, [r4, #88]
 1764              		.loc 1 189 0
 1765 0024 2366     		str	r3, [r4, #96]
 1766              	.LVL215:
 1767              	.L194:
ARM GAS  /var/folders/vt/qg0v_q5n5k99pnp_yg24c7s80000gn/T//ccOrtYYn.s 			page 32


 1768              		.loc 1 193 0
 1769 0026 0A48     		ldr	r0, .L196+8
 1770 0028 FFF7FEFF 		bl	chMtxLock
 1771              	.LVL216:
 1772              	.LBE89:
 1773              	.LBE91:
 1774              		.loc 1 742 0
 1775 002c 0025     		movs	r5, #0
 1776              		.loc 1 743 0
 1777 002e 4FF0FF33 		mov	r3, #-1
 1778              	.LVL217:
 1779              		.loc 1 746 0
 1780 0032 4246     		mov	r2, r8
 1781 0034 3946     		mov	r1, r7
 1782              		.loc 1 744 0
 1783 0036 2666     		str	r6, [r4, #96]
 1784              		.loc 1 742 0
 1785 0038 6560     		str	r5, [r4, #4]
 1786              		.loc 1 743 0
 1787 003a E360     		str	r3, [r4, #12]
 1788              		.loc 1 746 0
 1789 003c 0248     		ldr	r0, .L196
 1790              		.loc 1 747 0
 1791 003e BDE8F041 		pop	{r4, r5, r6, r7, r8, lr}
 1792              		.cfi_restore 14
 1793              		.cfi_restore 8
 1794              		.cfi_restore 7
 1795              		.cfi_restore 6
 1796              		.cfi_restore 5
 1797              		.cfi_restore 4
 1798              		.cfi_def_cfa_offset 0
 1799              	.LVL218:
 1800              		.loc 1 746 0
 1801 0042 FFF7FEBF 		b	vex_print
 1802              	.LVL219:
 1803              	.L197:
 1804 0046 00BF     		.align	2
 1805              	.L196:
 1806 0048 00000000 		.word	.LANCHOR1
 1807 004c 00000000 		.word	SD1
 1808 0050 44000000 		.word	.LANCHOR1+68
 1809              		.cfi_endproc
 1810              	.LFE74:
 1811              		.size	vex_vchprintf, .-vex_vchprintf
 1812              		.section	.text.vex_sprintf,"ax",%progbits
 1813              		.align	2
 1814              		.p2align 4,,15
 1815              		.global	vex_sprintf
 1816              		.thumb
 1817              		.thumb_func
 1818              		.type	vex_sprintf, %function
 1819              	vex_sprintf:
 1820              	.LFB75:
 1821              		.loc 1 760 0
 1822              		.cfi_startproc
 1823              		@ args = 4, pretend = 12, frame = 16
 1824              		@ frame_needed = 0, uses_anonymous_args = 1
ARM GAS  /var/folders/vt/qg0v_q5n5k99pnp_yg24c7s80000gn/T//ccOrtYYn.s 			page 33


 1825              	.LVL220:
 1826 0000 0EB4     		push	{r1, r2, r3}
 1827              		.cfi_def_cfa_offset 12
 1828              		.cfi_offset 1, -12
 1829              		.cfi_offset 2, -8
 1830              		.cfi_offset 3, -4
 1831 0002 70B5     		push	{r4, r5, r6, lr}
 1832              		.cfi_def_cfa_offset 28
 1833              		.cfi_offset 4, -28
 1834              		.cfi_offset 5, -24
 1835              		.cfi_offset 6, -20
 1836              		.cfi_offset 14, -16
 1837              	.LBB92:
 1838              	.LBB93:
 1839              		.loc 1 177 0
 1840 0004 114C     		ldr	r4, .L201
 1841              	.LBE93:
 1842              	.LBE92:
 1843              		.loc 1 760 0
 1844 0006 85B0     		sub	sp, sp, #20
 1845              		.cfi_def_cfa_offset 48
 1846              	.LBB96:
 1847              	.LBB94:
 1848              		.loc 1 177 0
 1849 0008 2568     		ldr	r5, [r4]
 1850              	.LBE94:
 1851              	.LBE96:
 1852              		.loc 1 760 0
 1853 000a 0190     		str	r0, [sp, #4]
 1854              	.LBB97:
 1855              	.LBB95:
 1856              		.loc 1 177 0
 1857 000c 55B9     		cbnz	r5, .L199
 1858              		.loc 1 179 0
 1859 000e 2046     		mov	r0, r4
 1860              	.LVL221:
 1861 0010 0123     		movs	r3, #1
 1862 0012 40F8443B 		str	r3, [r0], #68
 1863              		.loc 1 182 0
 1864 0016 FFF7FEFF 		bl	chMtxInit
 1865              	.LVL222:
 1866              		.loc 1 189 0
 1867 001a 0D4B     		ldr	r3, .L201+4
 1868              		.loc 1 187 0
 1869 001c A4F85450 		strh	r5, [r4, #84]	@ movhi
 1870              		.loc 1 188 0
 1871 0020 A565     		str	r5, [r4, #88]
 1872              		.loc 1 189 0
 1873 0022 2366     		str	r3, [r4, #96]
 1874              	.L199:
 1875              		.loc 1 193 0
 1876 0024 0B48     		ldr	r0, .L201+8
 1877 0026 FFF7FEFF 		bl	chMtxLock
 1878              	.LVL223:
 1879              	.LBE95:
 1880              	.LBE97:
 1881              		.loc 1 768 0
ARM GAS  /var/folders/vt/qg0v_q5n5k99pnp_yg24c7s80000gn/T//ccOrtYYn.s 			page 34


 1882 002a 0AAB     		add	r3, sp, #40
 1883              		.loc 1 769 0
 1884 002c 1A46     		mov	r2, r3
 1885              		.loc 1 765 0
 1886 002e 01AE     		add	r6, sp, #4
 1887              	.LVL224:
 1888              		.loc 1 766 0
 1889 0030 4FF0FF35 		mov	r5, #-1
 1890              		.loc 1 769 0
 1891 0034 0999     		ldr	r1, [sp, #36]
 1892 0036 0548     		ldr	r0, .L201
 1893              		.loc 1 768 0
 1894 0038 0393     		str	r3, [sp, #12]
 1895              		.loc 1 765 0
 1896 003a 6660     		str	r6, [r4, #4]
 1897              		.loc 1 766 0
 1898 003c E560     		str	r5, [r4, #12]
 1899              		.loc 1 769 0
 1900 003e FFF7FEFF 		bl	vex_print
 1901              	.LVL225:
 1902              		.loc 1 770 0
 1903 0042 05B0     		add	sp, sp, #20
 1904              		.cfi_def_cfa_offset 28
 1905              		@ sp needed
 1906 0044 BDE87040 		pop	{r4, r5, r6, lr}
 1907              		.cfi_restore 14
 1908              		.cfi_restore 6
 1909              		.cfi_restore 5
 1910              		.cfi_restore 4
 1911              		.cfi_def_cfa_offset 12
 1912              	.LVL226:
 1913 0048 03B0     		add	sp, sp, #12
 1914              		.cfi_restore 3
 1915              		.cfi_restore 2
 1916              		.cfi_restore 1
 1917              		.cfi_def_cfa_offset 0
 1918 004a 7047     		bx	lr
 1919              	.L202:
 1920              		.align	2
 1921              	.L201:
 1922 004c 00000000 		.word	.LANCHOR2
 1923 0050 00000000 		.word	SD1
 1924 0054 44000000 		.word	.LANCHOR2+68
 1925              		.cfi_endproc
 1926              	.LFE75:
 1927              		.size	vex_sprintf, .-vex_sprintf
 1928              		.section	.text.vex_snprintf,"ax",%progbits
 1929              		.align	2
 1930              		.p2align 4,,15
 1931              		.global	vex_snprintf
 1932              		.thumb
 1933              		.thumb_func
 1934              		.type	vex_snprintf, %function
 1935              	vex_snprintf:
 1936              	.LFB76:
 1937              		.loc 1 784 0
 1938              		.cfi_startproc
ARM GAS  /var/folders/vt/qg0v_q5n5k99pnp_yg24c7s80000gn/T//ccOrtYYn.s 			page 35


 1939              		@ args = 4, pretend = 8, frame = 16
 1940              		@ frame_needed = 0, uses_anonymous_args = 1
 1941              	.LVL227:
 1942 0000 0CB4     		push	{r2, r3}
 1943              		.cfi_def_cfa_offset 8
 1944              		.cfi_offset 2, -8
 1945              		.cfi_offset 3, -4
 1946 0002 70B5     		push	{r4, r5, r6, lr}
 1947              		.cfi_def_cfa_offset 24
 1948              		.cfi_offset 4, -24
 1949              		.cfi_offset 5, -20
 1950              		.cfi_offset 6, -16
 1951              		.cfi_offset 14, -12
 1952              	.LBB98:
 1953              	.LBB99:
 1954              		.loc 1 177 0
 1955 0004 134C     		ldr	r4, .L207
 1956              	.LBE99:
 1957              	.LBE98:
 1958              		.loc 1 784 0
 1959 0006 84B0     		sub	sp, sp, #16
 1960              		.cfi_def_cfa_offset 40
 1961              	.LBB103:
 1962              	.LBB100:
 1963              		.loc 1 177 0
 1964 0008 2668     		ldr	r6, [r4]
 1965              	.LBE100:
 1966              	.LBE103:
 1967              		.loc 1 784 0
 1968 000a 0190     		str	r0, [sp, #4]
 1969 000c 0D46     		mov	r5, r1
 1970              	.LBB104:
 1971              	.LBB101:
 1972              		.loc 1 177 0
 1973 000e A6B1     		cbz	r6, .L206
 1974              	.LVL228:
 1975              	.L204:
 1976              		.loc 1 193 0
 1977 0010 1148     		ldr	r0, .L207+4
 1978 0012 FFF7FEFF 		bl	chMtxLock
 1979              	.LVL229:
 1980              	.LBE101:
 1981              	.LBE104:
 1982              		.loc 1 794 0
 1983 0016 09AB     		add	r3, sp, #36
 1984              		.loc 1 796 0
 1985 0018 1A46     		mov	r2, r3
 1986              		.loc 1 791 0
 1987 001a 01AE     		add	r6, sp, #4
 1988              	.LVL230:
 1989              		.loc 1 796 0
 1990 001c 0899     		ldr	r1, [sp, #32]
 1991 001e 0D48     		ldr	r0, .L207
 1992              		.loc 1 792 0
 1993 0020 E560     		str	r5, [r4, #12]
 1994              		.loc 1 794 0
 1995 0022 0393     		str	r3, [sp, #12]
ARM GAS  /var/folders/vt/qg0v_q5n5k99pnp_yg24c7s80000gn/T//ccOrtYYn.s 			page 36


 1996              		.loc 1 791 0
 1997 0024 6660     		str	r6, [r4, #4]
 1998              		.loc 1 796 0
 1999 0026 FFF7FEFF 		bl	vex_print
 2000              	.LVL231:
 2001              		.loc 1 802 0
 2002 002a A842     		cmp	r0, r5
 2003 002c A8BF     		it	ge
 2004 002e 2846     		movge	r0, r5
 2005              	.LVL232:
 2006 0030 04B0     		add	sp, sp, #16
 2007              		.cfi_remember_state
 2008              		.cfi_def_cfa_offset 24
 2009              		@ sp needed
 2010 0032 BDE87040 		pop	{r4, r5, r6, lr}
 2011              		.cfi_restore 14
 2012              		.cfi_restore 6
 2013              		.cfi_restore 5
 2014              		.cfi_restore 4
 2015              		.cfi_def_cfa_offset 8
 2016              	.LVL233:
 2017 0036 02B0     		add	sp, sp, #8
 2018              		.cfi_restore 3
 2019              		.cfi_restore 2
 2020              		.cfi_def_cfa_offset 0
 2021 0038 7047     		bx	lr
 2022              	.LVL234:
 2023              	.L206:
 2024              		.cfi_restore_state
 2025              	.LBB105:
 2026              	.LBB102:
 2027              		.loc 1 179 0
 2028 003a 2046     		mov	r0, r4
 2029              	.LVL235:
 2030 003c 0123     		movs	r3, #1
 2031 003e 40F8443B 		str	r3, [r0], #68
 2032              		.loc 1 182 0
 2033 0042 FFF7FEFF 		bl	chMtxInit
 2034              	.LVL236:
 2035              		.loc 1 189 0
 2036 0046 054B     		ldr	r3, .L207+8
 2037              		.loc 1 187 0
 2038 0048 A4F85460 		strh	r6, [r4, #84]	@ movhi
 2039              		.loc 1 188 0
 2040 004c A665     		str	r6, [r4, #88]
 2041              		.loc 1 189 0
 2042 004e 2366     		str	r3, [r4, #96]
 2043 0050 DEE7     		b	.L204
 2044              	.L208:
 2045 0052 00BF     		.align	2
 2046              	.L207:
 2047 0054 00000000 		.word	.LANCHOR2
 2048 0058 44000000 		.word	.LANCHOR2+68
 2049 005c 00000000 		.word	SD1
 2050              	.LBE102:
 2051              	.LBE105:
 2052              		.cfi_endproc
ARM GAS  /var/folders/vt/qg0v_q5n5k99pnp_yg24c7s80000gn/T//ccOrtYYn.s 			page 37


 2053              	.LFE76:
 2054              		.size	vex_snprintf, .-vex_snprintf
 2055              		.section	.text.vex_vsprintf,"ax",%progbits
 2056              		.align	2
 2057              		.p2align 4,,15
 2058              		.global	vex_vsprintf
 2059              		.thumb
 2060              		.thumb_func
 2061              		.type	vex_vsprintf, %function
 2062              	vex_vsprintf:
 2063              	.LFB77:
 2064              		.loc 1 816 0
 2065              		.cfi_startproc
 2066              		@ args = 0, pretend = 0, frame = 8
 2067              		@ frame_needed = 0, uses_anonymous_args = 0
 2068              	.LVL237:
 2069 0000 F0B5     		push	{r4, r5, r6, r7, lr}
 2070              		.cfi_def_cfa_offset 20
 2071              		.cfi_offset 4, -20
 2072              		.cfi_offset 5, -16
 2073              		.cfi_offset 6, -12
 2074              		.cfi_offset 7, -8
 2075              		.cfi_offset 14, -4
 2076              	.LBB106:
 2077              	.LBB107:
 2078              		.loc 1 177 0
 2079 0002 104C     		ldr	r4, .L212
 2080              	.LBE107:
 2081              	.LBE106:
 2082              		.loc 1 816 0
 2083 0004 83B0     		sub	sp, sp, #12
 2084              		.cfi_def_cfa_offset 32
 2085              	.LBB110:
 2086              	.LBB108:
 2087              		.loc 1 177 0
 2088 0006 2568     		ldr	r5, [r4]
 2089              	.LBE108:
 2090              	.LBE110:
 2091              		.loc 1 816 0
 2092 0008 0190     		str	r0, [sp, #4]
 2093 000a 0E46     		mov	r6, r1
 2094 000c 1746     		mov	r7, r2
 2095              	.LBB111:
 2096              	.LBB109:
 2097              		.loc 1 177 0
 2098 000e 55B9     		cbnz	r5, .L210
 2099              		.loc 1 179 0
 2100 0010 2046     		mov	r0, r4
 2101              	.LVL238:
 2102 0012 0123     		movs	r3, #1
 2103 0014 40F8443B 		str	r3, [r0], #68
 2104              		.loc 1 182 0
 2105 0018 FFF7FEFF 		bl	chMtxInit
 2106              	.LVL239:
 2107              		.loc 1 189 0
 2108 001c 0A4B     		ldr	r3, .L212+4
 2109              		.loc 1 187 0
ARM GAS  /var/folders/vt/qg0v_q5n5k99pnp_yg24c7s80000gn/T//ccOrtYYn.s 			page 38


 2110 001e A4F85450 		strh	r5, [r4, #84]	@ movhi
 2111              		.loc 1 188 0
 2112 0022 A565     		str	r5, [r4, #88]
 2113              		.loc 1 189 0
 2114 0024 2366     		str	r3, [r4, #96]
 2115              	.LVL240:
 2116              	.L210:
 2117              		.loc 1 193 0
 2118 0026 0948     		ldr	r0, .L212+8
 2119 0028 FFF7FEFF 		bl	chMtxLock
 2120              	.LVL241:
 2121              	.LBE109:
 2122              	.LBE111:
 2123              		.loc 1 819 0
 2124 002c 01AD     		add	r5, sp, #4
 2125              	.LVL242:
 2126              		.loc 1 820 0
 2127 002e 4FF0FF33 		mov	r3, #-1
 2128              	.LVL243:
 2129              		.loc 1 822 0
 2130 0032 3A46     		mov	r2, r7
 2131 0034 3146     		mov	r1, r6
 2132 0036 0348     		ldr	r0, .L212
 2133              		.loc 1 819 0
 2134 0038 6560     		str	r5, [r4, #4]
 2135              		.loc 1 820 0
 2136 003a E360     		str	r3, [r4, #12]
 2137              		.loc 1 822 0
 2138 003c FFF7FEFF 		bl	vex_print
 2139              	.LVL244:
 2140              		.loc 1 823 0
 2141 0040 03B0     		add	sp, sp, #12
 2142              		.cfi_def_cfa_offset 20
 2143              		@ sp needed
 2144 0042 F0BD     		pop	{r4, r5, r6, r7, pc}
 2145              	.LVL245:
 2146              	.L213:
 2147              		.align	2
 2148              	.L212:
 2149 0044 00000000 		.word	.LANCHOR2
 2150 0048 00000000 		.word	SD1
 2151 004c 44000000 		.word	.LANCHOR2+68
 2152              		.cfi_endproc
 2153              	.LFE77:
 2154              		.size	vex_vsprintf, .-vex_vsprintf
 2155              		.section	.text.vex_vsnprintf,"ax",%progbits
 2156              		.align	2
 2157              		.p2align 4,,15
 2158              		.global	vex_vsnprintf
 2159              		.thumb
 2160              		.thumb_func
 2161              		.type	vex_vsnprintf, %function
 2162              	vex_vsnprintf:
 2163              	.LFB78:
 2164              		.loc 1 838 0
 2165              		.cfi_startproc
 2166              		@ args = 0, pretend = 0, frame = 8
ARM GAS  /var/folders/vt/qg0v_q5n5k99pnp_yg24c7s80000gn/T//ccOrtYYn.s 			page 39


 2167              		@ frame_needed = 0, uses_anonymous_args = 0
 2168              	.LVL246:
 2169 0000 2DE9F041 		push	{r4, r5, r6, r7, r8, lr}
 2170              		.cfi_def_cfa_offset 24
 2171              		.cfi_offset 4, -24
 2172              		.cfi_offset 5, -20
 2173              		.cfi_offset 6, -16
 2174              		.cfi_offset 7, -12
 2175              		.cfi_offset 8, -8
 2176              		.cfi_offset 14, -4
 2177              	.LBB112:
 2178              	.LBB113:
 2179              		.loc 1 177 0
 2180 0004 124C     		ldr	r4, .L218
 2181              	.LBE113:
 2182              	.LBE112:
 2183              		.loc 1 838 0
 2184 0006 82B0     		sub	sp, sp, #8
 2185              		.cfi_def_cfa_offset 32
 2186              	.LBB117:
 2187              	.LBB114:
 2188              		.loc 1 177 0
 2189 0008 2668     		ldr	r6, [r4]
 2190              	.LBE114:
 2191              	.LBE117:
 2192              		.loc 1 838 0
 2193 000a 0190     		str	r0, [sp, #4]
 2194 000c 0D46     		mov	r5, r1
 2195 000e 1746     		mov	r7, r2
 2196 0010 9846     		mov	r8, r3
 2197              	.LBB118:
 2198              	.LBB115:
 2199              		.loc 1 177 0
 2200 0012 86B1     		cbz	r6, .L217
 2201              	.LVL247:
 2202              	.L215:
 2203              		.loc 1 193 0
 2204 0014 0F48     		ldr	r0, .L218+4
 2205 0016 FFF7FEFF 		bl	chMtxLock
 2206              	.LVL248:
 2207              	.LBE115:
 2208              	.LBE118:
 2209              		.loc 1 843 0
 2210 001a 01AB     		add	r3, sp, #4
 2211              	.LVL249:
 2212              		.loc 1 846 0
 2213 001c 4246     		mov	r2, r8
 2214 001e 3946     		mov	r1, r7
 2215 0020 0B48     		ldr	r0, .L218
 2216              		.loc 1 844 0
 2217 0022 E560     		str	r5, [r4, #12]
 2218              		.loc 1 843 0
 2219 0024 6360     		str	r3, [r4, #4]
 2220              		.loc 1 846 0
 2221 0026 FFF7FEFF 		bl	vex_print
 2222              	.LVL250:
 2223              		.loc 1 852 0
ARM GAS  /var/folders/vt/qg0v_q5n5k99pnp_yg24c7s80000gn/T//ccOrtYYn.s 			page 40


 2224 002a A842     		cmp	r0, r5
 2225 002c A8BF     		it	ge
 2226 002e 2846     		movge	r0, r5
 2227              	.LVL251:
 2228 0030 02B0     		add	sp, sp, #8
 2229              		.cfi_remember_state
 2230              		.cfi_def_cfa_offset 24
 2231              		@ sp needed
 2232 0032 BDE8F081 		pop	{r4, r5, r6, r7, r8, pc}
 2233              	.LVL252:
 2234              	.L217:
 2235              		.cfi_restore_state
 2236              	.LBB119:
 2237              	.LBB116:
 2238              		.loc 1 179 0
 2239 0036 2046     		mov	r0, r4
 2240              	.LVL253:
 2241 0038 0123     		movs	r3, #1
 2242              	.LVL254:
 2243 003a 40F8443B 		str	r3, [r0], #68
 2244              		.loc 1 182 0
 2245 003e FFF7FEFF 		bl	chMtxInit
 2246              	.LVL255:
 2247              		.loc 1 189 0
 2248 0042 054B     		ldr	r3, .L218+8
 2249              		.loc 1 187 0
 2250 0044 A4F85460 		strh	r6, [r4, #84]	@ movhi
 2251              		.loc 1 188 0
 2252 0048 A665     		str	r6, [r4, #88]
 2253              		.loc 1 189 0
 2254 004a 2366     		str	r3, [r4, #96]
 2255 004c E2E7     		b	.L215
 2256              	.L219:
 2257 004e 00BF     		.align	2
 2258              	.L218:
 2259 0050 00000000 		.word	.LANCHOR2
 2260 0054 44000000 		.word	.LANCHOR2+68
 2261 0058 00000000 		.word	SD1
 2262              	.LBE116:
 2263              	.LBE119:
 2264              		.cfi_endproc
 2265              	.LFE78:
 2266              		.size	vex_vsnprintf, .-vex_vsnprintf
 2267              		.section	.bss.pdefs1,"aw",%nobits
 2268              		.align	2
 2269              		.set	.LANCHOR1,. + 0
 2270              		.type	pdefs1, %object
 2271              		.size	pdefs1, 100
 2272              	pdefs1:
 2273 0000 00000000 		.space	100
 2273      00000000 
 2273      00000000 
 2273      00000000 
 2273      00000000 
 2274              		.section	.bss.pdefs2,"aw",%nobits
 2275              		.align	2
 2276              		.set	.LANCHOR2,. + 0
ARM GAS  /var/folders/vt/qg0v_q5n5k99pnp_yg24c7s80000gn/T//ccOrtYYn.s 			page 41


 2277              		.type	pdefs2, %object
 2278              		.size	pdefs2, 100
 2279              	pdefs2:
 2280 0000 00000000 		.space	100
 2280      00000000 
 2280      00000000 
 2280      00000000 
 2280      00000000 
 2281              		.section	.rodata.str1.4,"aMS",%progbits,1
 2282              		.align	2
 2283              	.LC0:
 2284 0000 3000     		.ascii	"0\000"
 2285 0002 0000     		.space	2
 2286              	.LC1:
 2287 0004 286E756C 		.ascii	"(null)\000"
 2287      6C2900
 2288              		.section	.rodata.round_nums,"a",%progbits
 2289              		.align	3
 2290              		.set	.LANCHOR0,. + 0
 2291              		.type	round_nums, %object
 2292              		.size	round_nums, 64
 2293              	round_nums:
 2294 0000 00000000 		.word	0
 2295 0004 0000E03F 		.word	1071644672
 2296 0008 9A999999 		.word	2576980378
 2297 000c 9999A93F 		.word	1068079513
 2298 0010 7B14AE47 		.word	1202590843
 2299 0014 E17A743F 		.word	1064598241
 2300 0018 FCA9F1D2 		.word	3539053052
 2301 001c 4D62403F 		.word	1061184077
 2302 0020 2D431CEB 		.word	3944497965
 2303 0024 E2360A3F 		.word	1057634018
 2304 0028 F168E388 		.word	2296604913
 2305 002c B5F8D43E 		.word	1054144693
 2306 0030 8DEDB5A0 		.word	2696277389
 2307 0034 F7C6A03E 		.word	1050724087
 2308 0038 48AFBC9A 		.word	2596056904
 2309 003c F2D76A3E 		.word	1047189490
 2310              		.text
 2311              	.Letext0:
 2312              		.file 2 "/usr/local/gcc-arm-none-eabi-5_2-2015q4/lib/gcc/arm-none-eabi/5.2.1/include/stddef.h"
 2313              		.file 3 "/usr/local/gcc-arm-none-eabi-5_2-2015q4/arm-none-eabi/include/machine/_default_types.h"
 2314              		.file 4 "/usr/local/gcc-arm-none-eabi-5_2-2015q4/lib/gcc/arm-none-eabi/5.2.1/include/stdarg.h"
 2315              		.file 5 "/usr/local/gcc-arm-none-eabi-5_2-2015q4/arm-none-eabi/include/sys/_stdint.h"
 2316              		.file 6 "../../ChibiOS/os/ports/GCC/ARMCMx/chtypes.h"
 2317              		.file 7 "../../ChibiOS/os/kernel/include/chlists.h"
 2318              		.file 8 "<built-in>"
 2319              		.file 9 "../../ChibiOS/os/kernel/include/chthreads.h"
 2320              		.file 10 "../../ChibiOS/os/ports/GCC/ARMCMx/chcore_v7m.h"
 2321              		.file 11 "../../ChibiOS/os/kernel/include/chvt.h"
 2322              		.file 12 "../../ChibiOS/os/kernel/include/chmtx.h"
 2323              		.file 13 "../../ChibiOS/os/kernel/include/chevents.h"
 2324              		.file 14 "../../ChibiOS/os/kernel/include/chqueues.h"
 2325              		.file 15 "../../ChibiOS/os/kernel/include/chstreams.h"
 2326              		.file 16 "../../ChibiOS/os/hal/platforms/STM32F1xx/stm32f10x.h"
 2327              		.file 17 "../../ChibiOS/os/hal/include/serial.h"
 2328              		.file 18 "../../convex/convex/cortex/fw/vexcompat.h"
ARM GAS  /var/folders/vt/qg0v_q5n5k99pnp_yg24c7s80000gn/T//ccOrtYYn.s 			page 42


 2329              		.file 19 "../../convex/convex/cortex/fw/vexdigital.h"
 2330              		.file 20 "../../convex/convex/cortex/fw/vexime.h"
 2331              		.file 21 "../../ChibiOS/os/ports/common/ARMCMx/CMSIS/include/core_cm3.h"
 2332              		.file 22 "../../ChibiOS/os/hal/platforms/STM32/USARTv1/serial_lld.h"