ARM GAS  /var/folders/vt/qg0v_q5n5k99pnp_yg24c7s80000gn/T//ccZRdTpr.s 			page 1


   1              		.syntax unified
   2              		.cpu cortex-m3
   3              		.fpu softvfp
   4              		.eabi_attribute 20, 1
   5              		.eabi_attribute 21, 1
   6              		.eabi_attribute 23, 3
   7              		.eabi_attribute 24, 1
   8              		.eabi_attribute 25, 1
   9              		.eabi_attribute 26, 1
  10              		.eabi_attribute 30, 2
  11              		.eabi_attribute 34, 1
  12              		.eabi_attribute 18, 4
  13              		.thumb
  14              		.syntax unified
  15              		.file	"vexanalog.c"
  16              		.text
  17              	.Ltext0:
  18              		.cfi_sections	.debug_frame
  19              		.section	.text.vexAdcInit,"ax",%progbits
  20              		.align	2
  21              		.p2align 4,,15
  22              		.global	vexAdcInit
  23              		.thumb
  24              		.thumb_func
  25              		.type	vexAdcInit, %function
  26              	vexAdcInit:
  27              	.LFB63:
  28              		.file 1 "../../convex/convex/cortex/fw/vexanalog.c"
  29              		.loc 1 104 0
  30              		.cfi_startproc
  31              		@ args = 0, pretend = 0, frame = 0
  32              		@ frame_needed = 0, uses_anonymous_args = 0
  33 0000 10B5     		push	{r4, lr}
  34              		.cfi_def_cfa_offset 8
  35              		.cfi_offset 4, -8
  36              		.cfi_offset 14, -4
  37              		.loc 1 107 0
  38 0002 074C     		ldr	r4, .L3
  39              		.loc 1 106 0
  40 0004 FFF7FEFF 		bl	adcInit
  41              	.LVL0:
  42              		.loc 1 107 0
  43 0008 2046     		mov	r0, r4
  44 000a 0649     		ldr	r1, .L3+4
  45 000c FFF7FEFF 		bl	adcStart
  46              	.LVL1:
  47              		.loc 1 110 0
  48 0010 2046     		mov	r0, r4
  49              		.loc 1 111 0
  50 0012 BDE81040 		pop	{r4, lr}
  51              		.cfi_restore 14
  52              		.cfi_restore 4
  53              		.cfi_def_cfa_offset 0
  54              		.loc 1 110 0
  55 0016 0123     		movs	r3, #1
  56 0018 034A     		ldr	r2, .L3+8
  57 001a 0449     		ldr	r1, .L3+12
ARM GAS  /var/folders/vt/qg0v_q5n5k99pnp_yg24c7s80000gn/T//ccZRdTpr.s 			page 2


  58 001c FFF7FEBF 		b	adcStartConversion
  59              	.LVL2:
  60              	.L4:
  61              		.align	2
  62              	.L3:
  63 0020 00000000 		.word	ADCD1
  64 0024 00000000 		.word	.LANCHOR0
  65 0028 00000000 		.word	.LANCHOR1
  66 002c 00000000 		.word	.LANCHOR2
  67              		.cfi_endproc
  68              	.LFE63:
  69              		.size	vexAdcInit, .-vexAdcInit
  70              		.section	.text.vexAdcGet,"ax",%progbits
  71              		.align	2
  72              		.p2align 4,,15
  73              		.global	vexAdcGet
  74              		.thumb
  75              		.thumb_func
  76              		.type	vexAdcGet, %function
  77              	vexAdcGet:
  78              	.LFB64:
  79              		.loc 1 121 0
  80              		.cfi_startproc
  81              		@ args = 0, pretend = 0, frame = 0
  82              		@ frame_needed = 0, uses_anonymous_args = 0
  83              		@ link register save eliminated.
  84              	.LVL3:
  85              		.loc 1 122 0
  86 0000 83B2     		uxth	r3, r0
  87 0002 072B     		cmp	r3, #7
  88              		.loc 1 123 0
  89 0004 8EBF     		itee	hi
  90 0006 4FF6FF70 		movwhi	r0, #65535
  91              	.LVL4:
  92              		.loc 1 125 0
  93 000a 024B     		ldrls	r3, .L9
  94              	.LVL5:
  95 000c 33F81000 		ldrhls	r0, [r3, r0, lsl #1]
  96              		.loc 1 126 0
  97 0010 00B2     		sxth	r0, r0
  98 0012 7047     		bx	lr
  99              	.L10:
 100              		.align	2
 101              	.L9:
 102 0014 00000000 		.word	.LANCHOR1
 103              		.cfi_endproc
 104              	.LFE64:
 105              		.size	vexAdcGet, .-vexAdcGet
 106              		.section	.text.vexAdcDebug,"ax",%progbits
 107              		.align	2
 108              		.p2align 4,,15
 109              		.global	vexAdcDebug
 110              		.thumb
 111              		.thumb_func
 112              		.type	vexAdcDebug, %function
 113              	vexAdcDebug:
 114              	.LFB65:
ARM GAS  /var/folders/vt/qg0v_q5n5k99pnp_yg24c7s80000gn/T//ccZRdTpr.s 			page 3


 115              		.loc 1 137 0
 116              		.cfi_startproc
 117              		@ args = 0, pretend = 0, frame = 0
 118              		@ frame_needed = 0, uses_anonymous_args = 0
 119              	.LVL6:
 120 0000 70B5     		push	{r4, r5, r6, lr}
 121              		.cfi_def_cfa_offset 16
 122              		.cfi_offset 4, -16
 123              		.cfi_offset 5, -12
 124              		.cfi_offset 6, -8
 125              		.cfi_offset 14, -4
 126              		.loc 1 137 0
 127 0002 0646     		mov	r6, r0
 128 0004 064D     		ldr	r5, .L15
 129              		.loc 1 143 0
 130 0006 0024     		movs	r4, #0
 131              	.LVL7:
 132              	.L12:
 133              		.loc 1 144 0 discriminator 3
 134 0008 2246     		mov	r2, r4
 135 000a 35F9023F 		ldrsh	r3, [r5, #2]!
 136 000e 0549     		ldr	r1, .L15+4
 137              		.loc 1 143 0 discriminator 3
 138 0010 0134     		adds	r4, r4, #1
 139              	.LVL8:
 140              		.loc 1 144 0 discriminator 3
 141 0012 3046     		mov	r0, r6
 142 0014 FFF7FEFF 		bl	vex_chprintf
 143              	.LVL9:
 144              		.loc 1 143 0 discriminator 3
 145 0018 082C     		cmp	r4, #8
 146 001a F5D1     		bne	.L12
 147              		.loc 1 145 0
 148 001c 70BD     		pop	{r4, r5, r6, pc}
 149              	.LVL10:
 150              	.L16:
 151 001e 00BF     		.align	2
 152              	.L15:
 153 0020 FEFFFFFF 		.word	.LANCHOR1-2
 154 0024 00000000 		.word	.LC0
 155              		.cfi_endproc
 156              	.LFE65:
 157              		.size	vexAdcDebug, .-vexAdcDebug
 158              		.section	.bss.adccfg,"aw",%nobits
 159              		.align	2
 160              		.set	.LANCHOR0,. + 0
 161              		.type	adccfg, %object
 162              		.size	adccfg, 4
 163              	adccfg:
 164 0000 00000000 		.space	4
 165              		.section	.rodata.str1.4,"aMS",%progbits,1
 166              		.align	2
 167              	.LC0:
 168 0000 6368616E 		.ascii	"channel %d = %4d\015\012\000"
 168      6E656C20 
 168      2564203D 
 168      20253464 
ARM GAS  /var/folders/vt/qg0v_q5n5k99pnp_yg24c7s80000gn/T//ccZRdTpr.s 			page 4


 168      0D0A00
 169              		.section	.data.adccg,"aw",%progbits
 170              		.align	2
 171              		.set	.LANCHOR2,. + 0
 172              		.type	adccg, %object
 173              		.size	adccg, 40
 174              	adccg:
 175 0000 01       		.byte	1
 176 0001 00       		.space	1
 177 0002 0800     		.short	8
 178 0004 00000000 		.word	0
 179 0008 00000000 		.word	0
 180 000c 00000000 		.word	0
 181 0010 00000000 		.word	0
 182 0014 6D0B0000 		.word	2925
 183 0018 6D0B0000 		.word	2925
 184 001c 00007000 		.word	7340032
 185 0020 6A010000 		.word	362
 186 0024 2088C11A 		.word	448890912
 187              		.section	.bss.samples_buf,"aw",%nobits
 188              		.align	2
 189              		.set	.LANCHOR1,. + 0
 190              		.type	samples_buf, %object
 191              		.size	samples_buf, 16
 192              	samples_buf:
 193 0000 00000000 		.space	16
 193      00000000 
 193      00000000 
 193      00000000 
 194              		.text
 195              	.Letext0:
 196              		.file 2 "/usr/local/gcc-arm-none-eabi-5_2-2015q4/lib/gcc/arm-none-eabi/5.2.1/include/stddef.h"
 197              		.file 3 "/usr/local/gcc-arm-none-eabi-5_2-2015q4/arm-none-eabi/include/machine/_default_types.h"
 198              		.file 4 "/usr/local/gcc-arm-none-eabi-5_2-2015q4/arm-none-eabi/include/sys/_stdint.h"
 199              		.file 5 "../../ChibiOS/os/ports/GCC/ARMCMx/chtypes.h"
 200              		.file 6 "../../ChibiOS/os/kernel/include/chlists.h"
 201              		.file 7 "../../ChibiOS/os/kernel/include/chthreads.h"
 202              		.file 8 "../../ChibiOS/os/ports/GCC/ARMCMx/chcore_v7m.h"
 203              		.file 9 "../../ChibiOS/os/kernel/include/chmtx.h"
 204              		.file 10 "../../ChibiOS/os/kernel/include/chstreams.h"
 205              		.file 11 "../../ChibiOS/os/hal/platforms/STM32F1xx/stm32f10x.h"
 206              		.file 12 "../../ChibiOS/os/hal/platforms/STM32F1xx/stm32_dma.h"
 207              		.file 13 "../../ChibiOS/os/hal/include/adc.h"
 208              		.file 14 "../../ChibiOS/os/hal/platforms/STM32F1xx/adc_lld.h"
 209              		.file 15 "../../convex/convex/cortex/fw/vexcompat.h"
 210              		.file 16 "../../convex/convex/cortex/fw/vexdigital.h"
 211              		.file 17 "../../convex/convex/cortex/fw/vexime.h"
 212              		.file 18 "../../ChibiOS/os/ports/common/ARMCMx/CMSIS/include/core_cm3.h"
 213              		.file 19 "../../convex/convex/cortex/fw/vexprintf.h"