ARM GAS  /var/folders/vt/qg0v_q5n5k99pnp_yg24c7s80000gn/T//cczA13JW.s 			page 1


   1              		.syntax unified
   2              		.cpu cortex-m3
   3              		.fpu softvfp
   4              		.eabi_attribute 20, 1
   5              		.eabi_attribute 21, 1
   6              		.eabi_attribute 23, 3
   7              		.eabi_attribute 24, 1
   8              		.eabi_attribute 25, 1
   9              		.eabi_attribute 26, 1
  10              		.eabi_attribute 30, 2
  11              		.eabi_attribute 34, 1
  12              		.eabi_attribute 18, 4
  13              		.thumb
  14              		.syntax unified
  15              		.file	"vexdefault.c"
  16              		.text
  17              	.Ltext0:
  18              		.cfi_sections	.debug_frame
  19              		.section	.text.vexCortexDefaultSetup,"ax",%progbits
  20              		.align	2
  21              		.p2align 4,,15
  22              		.global	vexCortexDefaultSetup
  23              		.thumb
  24              		.thumb_func
  25              		.type	vexCortexDefaultSetup, %function
  26              	vexCortexDefaultSetup:
  27              	.LFB63:
  28              		.file 1 "vexdefault.c"
  29              		.loc 1 109 0
  30              		.cfi_startproc
  31              		@ args = 0, pretend = 0, frame = 0
  32              		@ frame_needed = 0, uses_anonymous_args = 0
  33 0000 08B5     		push	{r3, lr}
  34              		.cfi_def_cfa_offset 8
  35              		.cfi_offset 3, -8
  36              		.cfi_offset 14, -4
  37              		.loc 1 110 0
  38 0002 0C21     		movs	r1, #12
  39 0004 0448     		ldr	r0, .L3
  40 0006 FFF7FEFF 		bl	vexDigitalConfigure
  41              	.LVL0:
  42              		.loc 1 112 0
  43 000a BDE80840 		pop	{r3, lr}
  44              		.cfi_restore 14
  45              		.cfi_restore 3
  46              		.cfi_def_cfa_offset 0
  47              		.loc 1 111 0
  48 000e 0A21     		movs	r1, #10
  49 0010 0248     		ldr	r0, .L3+4
  50 0012 FFF7FEBF 		b	vexMotorConfigure
  51              	.LVL1:
  52              	.L4:
  53 0016 00BF     		.align	2
  54              	.L3:
  55 0018 00000000 		.word	.LANCHOR0
  56 001c 00000000 		.word	.LANCHOR1
  57              		.cfi_endproc
ARM GAS  /var/folders/vt/qg0v_q5n5k99pnp_yg24c7s80000gn/T//cczA13JW.s 			page 2


  58              	.LFE63:
  59              		.size	vexCortexDefaultSetup, .-vexCortexDefaultSetup
  60              		.global	__aeabi_i2d
  61              		.section	.text.getJoystickVector,"ax",%progbits
  62              		.align	2
  63              		.p2align 4,,15
  64              		.global	getJoystickVector
  65              		.thumb
  66              		.thumb_func
  67              		.type	getJoystickVector, %function
  68              	getJoystickVector:
  69              	.LFB64:
  70              		.loc 1 117 0
  71              		.cfi_startproc
  72              		@ args = 0, pretend = 0, frame = 0
  73              		@ frame_needed = 0, uses_anonymous_args = 0
  74              	.LVL2:
  75 0000 2DE9F04F 		push	{r4, r5, r6, r7, r8, r9, r10, fp, lr}
  76              		.cfi_def_cfa_offset 36
  77              		.cfi_offset 4, -36
  78              		.cfi_offset 5, -32
  79              		.cfi_offset 6, -28
  80              		.cfi_offset 7, -24
  81              		.cfi_offset 8, -20
  82              		.cfi_offset 9, -16
  83              		.cfi_offset 10, -12
  84              		.cfi_offset 11, -8
  85              		.cfi_offset 14, -4
  86 0004 8346     		mov	fp, r0
  87 0006 85B0     		sub	sp, sp, #20
  88              		.cfi_def_cfa_offset 56
  89              		.loc 1 121 0
  90 0008 0220     		movs	r0, #2
  91              	.LVL3:
  92              		.loc 1 117 0
  93 000a 8A46     		mov	r10, r1
  94              		.loc 1 121 0
  95 000c FFF7FEFF 		bl	vexControllerGet
  96              	.LVL4:
  97 0010 0446     		mov	r4, r0
  98              	.LVL5:
  99              		.loc 1 122 0
 100 0012 0320     		movs	r0, #3
 101 0014 FFF7FEFF 		bl	vexControllerGet
 102              	.LVL6:
 103              		.loc 1 124 0
 104 0018 1828     		cmp	r0, #24
 105 001a 32DD     		ble	.L5
 106              	.LVL7:
 107 001c 0546     		mov	r5, r0
 108              		.loc 1 132 0
 109 001e 00FB00F0 		mul	r0, r0, r0
 110              	.LVL8:
 111              		.loc 1 125 0
 112 0022 182C     		cmp	r4, #24
 113 0024 D8BF     		it	le
 114 0026 0024     		movle	r4, #0
ARM GAS  /var/folders/vt/qg0v_q5n5k99pnp_yg24c7s80000gn/T//cczA13JW.s 			page 3


 115              	.LVL9:
 116              		.loc 1 132 0
 117 0028 24B2     		sxth	r4, r4
 118 002a 04FB0400 		mla	r0, r4, r4, r0
 119 002e FFF7FEFF 		bl	__aeabi_i2d
 120              	.LVL10:
 121 0032 FFF7FEFF 		bl	sqrt
 122              	.LVL11:
 123 0036 0646     		mov	r6, r0
 124              		.loc 1 133 0
 125 0038 2846     		mov	r0, r5
 126              		.loc 1 132 0
 127 003a 0F46     		mov	r7, r1
 128              	.LVL12:
 129              		.loc 1 133 0
 130 003c FFF7FEFF 		bl	__aeabi_i2d
 131              	.LVL13:
 132 0040 8046     		mov	r8, r0
 133 0042 8946     		mov	r9, r1
 134 0044 2046     		mov	r0, r4
 135 0046 FFF7FEFF 		bl	__aeabi_i2d
 136              	.LVL14:
 137 004a 4246     		mov	r2, r8
 138 004c 4B46     		mov	r3, r9
 139 004e FFF7FEFF 		bl	atan2
 140              	.LVL15:
 141              		.loc 1 139 0
 142 0052 DFF86080 		ldr	r8, .L13+12
 143              		.loc 1 140 0
 144 0056 144A     		ldr	r2, .L13
 145              		.loc 1 139 0
 146 0058 D8F80030 		ldr	r3, [r8]
 147              		.loc 1 135 0
 148 005c CBE90067 		strd	r6, [fp]
 149              		.loc 1 139 0
 150 0060 0133     		adds	r3, r3, #1
 151              		.loc 1 140 0
 152 0062 82FB0329 		smull	r2, r9, r2, r3
 153 0066 DA17     		asrs	r2, r3, #31
 154 0068 C2EB6912 		rsb	r2, r2, r9, asr #5
 155 006c 4FF06409 		mov	r9, #100
 156 0070 09FB1239 		mls	r9, r9, r2, r3
 157              		.loc 1 136 0
 158 0074 CAE90001 		strd	r0, [r10]
 159              		.loc 1 139 0
 160 0078 C8F80030 		str	r3, [r8]
 161              		.loc 1 140 0
 162 007c B9F1000F 		cmp	r9, #0
 163 0080 02D0     		beq	.L12
 164              	.LVL16:
 165              	.L5:
 166              		.loc 1 149 0
 167 0082 05B0     		add	sp, sp, #20
 168              		.cfi_remember_state
 169              		.cfi_def_cfa_offset 36
 170              		@ sp needed
 171 0084 BDE8F08F 		pop	{r4, r5, r6, r7, r8, r9, r10, fp, pc}
ARM GAS  /var/folders/vt/qg0v_q5n5k99pnp_yg24c7s80000gn/T//cczA13JW.s 			page 4


 172              	.LVL17:
 173              	.L12:
 174              		.cfi_restore_state
 175              		.loc 1 142 0
 176 0088 CDE90201 		strd	r0, [sp, #8]
 177 008c CDE90067 		strd	r6, [sp]
 178 0090 2346     		mov	r3, r4
 179 0092 2A46     		mov	r2, r5
 180 0094 0549     		ldr	r1, .L13+4
 181 0096 0648     		ldr	r0, .L13+8
 182              	.LVL18:
 183 0098 FFF7FEFF 		bl	vex_chprintf
 184              	.LVL19:
 185              		.loc 1 143 0
 186 009c C8F80090 		str	r9, [r8]
 187              		.loc 1 149 0
 188 00a0 05B0     		add	sp, sp, #20
 189              		.cfi_def_cfa_offset 36
 190              		@ sp needed
 191 00a2 BDE8F08F 		pop	{r4, r5, r6, r7, r8, r9, r10, fp, pc}
 192              	.LVL20:
 193              	.L14:
 194 00a6 00BF     		.align	2
 195              	.L13:
 196 00a8 1F85EB51 		.word	1374389535
 197 00ac 00000000 		.word	.LC0
 198 00b0 00000000 		.word	SD1
 199 00b4 00000000 		.word	.LANCHOR2
 200              		.cfi_endproc
 201              	.LFE64:
 202              		.size	getJoystickVector, .-getJoystickVector
 203              		.section	.text.vexCortexDefaultDriver,"ax",%progbits
 204              		.align	2
 205              		.p2align 4,,15
 206              		.global	vexCortexDefaultDriver
 207              		.thumb
 208              		.thumb_func
 209              		.type	vexCortexDefaultDriver, %function
 210              	vexCortexDefaultDriver:
 211              	.LFB65:
 212              		.loc 1 155 0
 213              		.cfi_startproc
 214              		@ args = 0, pretend = 0, frame = 0
 215              		@ frame_needed = 0, uses_anonymous_args = 0
 216              	.LVL21:
 217 0000 10B5     		push	{r4, lr}
 218              		.cfi_def_cfa_offset 8
 219              		.cfi_offset 4, -8
 220              		.cfi_offset 14, -4
 221              		.loc 1 161 0
 222 0002 0021     		movs	r1, #0
 223 0004 0120     		movs	r0, #1
 224 0006 FFF7FEFF 		bl	vexMotorDirectionSet
 225              	.LVL22:
 226              		.loc 1 162 0
 227 000a 0021     		movs	r1, #0
 228 000c 0220     		movs	r0, #2
ARM GAS  /var/folders/vt/qg0v_q5n5k99pnp_yg24c7s80000gn/T//cczA13JW.s 			page 5


 229 000e FFF7FEFF 		bl	vexMotorDirectionSet
 230              	.LVL23:
 231              		.loc 1 163 0
 232 0012 0021     		movs	r1, #0
 233 0014 0320     		movs	r0, #3
 234 0016 FFF7FEFF 		bl	vexMotorDirectionSet
 235              	.LVL24:
 236              		.loc 1 164 0
 237 001a 0021     		movs	r1, #0
 238 001c 0420     		movs	r0, #4
 239 001e FFF7FEFF 		bl	vexMotorDirectionSet
 240              	.LVL25:
 241              		.loc 1 165 0
 242 0022 0021     		movs	r1, #0
 243 0024 0120     		movs	r0, #1
 244 0026 FFF7FEFF 		bl	vexMotorSet
 245              	.LVL26:
 246              		.loc 1 166 0
 247 002a 0021     		movs	r1, #0
 248 002c 0220     		movs	r0, #2
 249 002e FFF7FEFF 		bl	vexMotorSet
 250              	.LVL27:
 251              		.loc 1 171 0
 252 0032 0A4C     		ldr	r4, .L22
 253              		.loc 1 167 0
 254 0034 0021     		movs	r1, #0
 255 0036 0320     		movs	r0, #3
 256 0038 FFF7FEFF 		bl	vexMotorSet
 257              	.LVL28:
 258              		.loc 1 168 0
 259 003c 0021     		movs	r1, #0
 260 003e 0420     		movs	r0, #4
 261 0040 FFF7FEFF 		bl	vexMotorSet
 262              	.LVL29:
 263              		.loc 1 171 0
 264 0044 A369     		ldr	r3, [r4, #24]
 265 0046 5B7F     		ldrb	r3, [r3, #29]	@ zero_extendqisi2
 266 0048 5A07     		lsls	r2, r3, #29
 267 004a 06D4     		bmi	.L15
 268              	.L16:
 269              		.loc 1 207 0
 270 004c 0A20     		movs	r0, #10
 271 004e FFF7FEFF 		bl	vexSleep
 272              	.LVL30:
 273              		.loc 1 171 0
 274 0052 A369     		ldr	r3, [r4, #24]
 275 0054 5B7F     		ldrb	r3, [r3, #29]	@ zero_extendqisi2
 276 0056 5B07     		lsls	r3, r3, #29
 277 0058 F8D5     		bpl	.L16
 278              	.L15:
 279 005a 10BD     		pop	{r4, pc}
 280              	.L23:
 281              		.align	2
 282              	.L22:
 283 005c 00000000 		.word	rlist
 284              		.cfi_endproc
 285              	.LFE65:
ARM GAS  /var/folders/vt/qg0v_q5n5k99pnp_yg24c7s80000gn/T//cczA13JW.s 			page 6


 286              		.size	vexCortexDefaultDriver, .-vexCortexDefaultDriver
 287              		.section	.bss.count,"aw",%nobits
 288              		.align	2
 289              		.set	.LANCHOR2,. + 0
 290              		.type	count, %object
 291              		.size	count, 4
 292              	count:
 293 0000 00000000 		.space	4
 294              		.section	.rodata.str1.4,"aMS",%progbits,1
 295              		.align	2
 296              	.LC0:
 297 0000 783A2025 		.ascii	"x: %d y: %d s: %f a: %f\012\000"
 297      6420793A 
 297      20256420 
 297      733A2025 
 297      6620613A 
 298              		.section	.data.mConfig,"aw",%progbits
 299              		.align	2
 300              		.set	.LANCHOR1,. + 0
 301              		.type	mConfig, %object
 302              		.size	mConfig, 60
 303              	mConfig:
 304 0000 00       		.byte	0
 305 0001 02       		.byte	2
 306 0002 00       		.byte	0
 307 0003 00       		.byte	0
 308 0004 0000     		.short	0
 309 0006 01       		.byte	1
 310 0007 02       		.byte	2
 311 0008 00       		.byte	0
 312 0009 00       		.byte	0
 313 000a 0000     		.short	0
 314 000c 02       		.byte	2
 315 000d 02       		.byte	2
 316 000e 00       		.byte	0
 317 000f 00       		.byte	0
 318 0010 0000     		.short	0
 319 0012 03       		.byte	3
 320 0013 02       		.byte	2
 321 0014 00       		.byte	0
 322 0015 00       		.byte	0
 323 0016 0000     		.short	0
 324 0018 04       		.byte	4
 325 0019 02       		.byte	2
 326 001a 00       		.byte	0
 327 001b 00       		.byte	0
 328 001c 0000     		.short	0
 329 001e 05       		.byte	5
 330 001f 02       		.byte	2
 331 0020 00       		.byte	0
 332 0021 00       		.byte	0
 333 0022 0000     		.short	0
 334 0024 06       		.byte	6
 335 0025 02       		.byte	2
 336 0026 00       		.byte	0
 337 0027 00       		.byte	0
 338 0028 0000     		.short	0
ARM GAS  /var/folders/vt/qg0v_q5n5k99pnp_yg24c7s80000gn/T//cczA13JW.s 			page 7


 339 002a 07       		.byte	7
 340 002b 02       		.byte	2
 341 002c 00       		.byte	0
 342 002d 00       		.byte	0
 343 002e 0000     		.short	0
 344 0030 08       		.byte	8
 345 0031 02       		.byte	2
 346 0032 00       		.byte	0
 347 0033 00       		.byte	0
 348 0034 0000     		.short	0
 349 0036 09       		.byte	9
 350 0037 02       		.byte	2
 351 0038 00       		.byte	0
 352 0039 00       		.byte	0
 353 003a 0000     		.short	0
 354              		.section	.data.dConfig,"aw",%progbits
 355              		.align	2
 356              		.set	.LANCHOR0,. + 0
 357              		.type	dConfig, %object
 358              		.size	dConfig, 72
 359              	dConfig:
 360 0000 00       		.byte	0
 361 0001 01       		.byte	1
 362 0002 00       		.byte	0
 363 0003 00       		.space	1
 364 0004 0000     		.short	0
 365 0006 01       		.byte	1
 366 0007 01       		.byte	1
 367 0008 00       		.byte	0
 368 0009 00       		.space	1
 369 000a 0000     		.short	0
 370 000c 02       		.byte	2
 371 000d 01       		.byte	1
 372 000e 00       		.byte	0
 373 000f 00       		.space	1
 374 0010 0000     		.short	0
 375 0012 03       		.byte	3
 376 0013 01       		.byte	1
 377 0014 00       		.byte	0
 378 0015 00       		.space	1
 379 0016 0000     		.short	0
 380 0018 04       		.byte	4
 381 0019 01       		.byte	1
 382 001a 00       		.byte	0
 383 001b 00       		.space	1
 384 001c 0000     		.short	0
 385 001e 05       		.byte	5
 386 001f 01       		.byte	1
 387 0020 00       		.byte	0
 388 0021 00       		.space	1
 389 0022 0000     		.short	0
 390 0024 06       		.byte	6
 391 0025 01       		.byte	1
 392 0026 00       		.byte	0
 393 0027 00       		.space	1
 394 0028 0000     		.short	0
 395 002a 07       		.byte	7
ARM GAS  /var/folders/vt/qg0v_q5n5k99pnp_yg24c7s80000gn/T//cczA13JW.s 			page 8


 396 002b 01       		.byte	1
 397 002c 00       		.byte	0
 398 002d 00       		.space	1
 399 002e 0000     		.short	0
 400 0030 08       		.byte	8
 401 0031 01       		.byte	1
 402 0032 00       		.byte	0
 403 0033 00       		.space	1
 404 0034 0000     		.short	0
 405 0036 09       		.byte	9
 406 0037 01       		.byte	1
 407 0038 00       		.byte	0
 408 0039 00       		.space	1
 409 003a 0000     		.short	0
 410 003c 0A       		.byte	10
 411 003d 01       		.byte	1
 412 003e 00       		.byte	0
 413 003f 00       		.space	1
 414 0040 0000     		.short	0
 415 0042 0B       		.byte	11
 416 0043 01       		.byte	1
 417 0044 00       		.byte	0
 418 0045 00       		.space	1
 419 0046 0000     		.short	0
 420              		.text
 421              	.Letext0:
 422              		.file 2 "/usr/local/gcc-arm-none-eabi-5_2-2015q4/lib/gcc/arm-none-eabi/5.2.1/include/stddef.h"
 423              		.file 3 "/usr/local/gcc-arm-none-eabi-5_2-2015q4/arm-none-eabi/include/machine/_default_types.h"
 424              		.file 4 "/usr/local/gcc-arm-none-eabi-5_2-2015q4/arm-none-eabi/include/sys/_stdint.h"
 425              		.file 5 "../../ChibiOS/os/ports/GCC/ARMCMx/chtypes.h"
 426              		.file 6 "../../ChibiOS/os/kernel/include/chlists.h"
 427              		.file 7 "../../ChibiOS/os/kernel/include/chthreads.h"
 428              		.file 8 "../../ChibiOS/os/ports/GCC/ARMCMx/chcore_v7m.h"
 429              		.file 9 "../../ChibiOS/os/kernel/include/chschd.h"
 430              		.file 10 "../../ChibiOS/os/kernel/include/chmtx.h"
 431              		.file 11 "../../ChibiOS/os/kernel/include/chevents.h"
 432              		.file 12 "../../ChibiOS/os/kernel/include/chqueues.h"
 433              		.file 13 "../../ChibiOS/os/kernel/include/chstreams.h"
 434              		.file 14 "../../ChibiOS/os/hal/platforms/STM32F1xx/stm32f10x.h"
 435              		.file 15 "../../ChibiOS/os/hal/include/serial.h"
 436              		.file 16 "../../convex/convex/cortex/fw/vexcompat.h"
 437              		.file 17 "../../convex/convex/cortex/fw/vexdigital.h"
 438              		.file 18 "../../convex/convex/cortex/fw/vexmotor.h"
 439              		.file 19 "../../convex/convex/cortex/fw/vexime.h"
 440              		.file 20 "../../convex/convex/cortex/fw/vexconfig.h"
 441              		.file 21 "../../convex/convex/cortex/fw/vexctl.h"
 442              		.file 22 "../../ChibiOS/os/ports/common/ARMCMx/CMSIS/include/core_cm3.h"
 443              		.file 23 "/usr/local/gcc-arm-none-eabi-5_2-2015q4/arm-none-eabi/include/math.h"
 444              		.file 24 "../../convex/convex/cortex/fw/vexprintf.h"
 445              		.file 25 "../../convex/convex/cortex/fw/vex.h"
 446              		.file 26 "../../ChibiOS/os/hal/platforms/STM32/USARTv1/serial_lld.h"