ARM GAS  /var/folders/vt/qg0v_q5n5k99pnp_yg24c7s80000gn/T//ccb0Rb4N.s 			page 1


   1              		.syntax unified
   2              		.cpu cortex-m3
   3              		.fpu softvfp
   4              		.eabi_attribute 20, 1
   5              		.eabi_attribute 21, 1
   6              		.eabi_attribute 23, 3
   7              		.eabi_attribute 24, 1
   8              		.eabi_attribute 25, 1
   9              		.eabi_attribute 26, 1
  10              		.eabi_attribute 30, 2
  11              		.eabi_attribute 34, 1
  12              		.eabi_attribute 18, 4
  13              		.thumb
  14              		.syntax unified
  15              		.file	"vexsensor.c"
  16              		.text
  17              	.Ltext0:
  18              		.cfi_sections	.debug_frame
  19              		.section	.text.vexSensorIsAnalog,"ax",%progbits
  20              		.align	2
  21              		.p2align 4,,15
  22              		.global	vexSensorIsAnalog
  23              		.thumb
  24              		.thumb_func
  25              		.type	vexSensorIsAnalog, %function
  26              	vexSensorIsAnalog:
  27              	.LFB63:
  28              		.file 1 "../../convex/convex/cortex/fw/vexsensor.c"
  29              		.loc 1 63 0
  30              		.cfi_startproc
  31              		@ args = 0, pretend = 0, frame = 0
  32              		@ frame_needed = 0, uses_anonymous_args = 0
  33              		@ link register save eliminated.
  34              	.LVL0:
  35 0000 C0B2     		uxtb	r0, r0
  36              		.loc 1 68 0
  37 0002 0728     		cmp	r0, #7
  38 0004 8CBF     		ite	hi
  39 0006 0020     		movhi	r0, #0
  40              	.LVL1:
  41 0008 0120     		movls	r0, #1
  42 000a 7047     		bx	lr
  43              		.cfi_endproc
  44              	.LFE63:
  45              		.size	vexSensorIsAnalog, .-vexSensorIsAnalog
  46              		.section	.text.vexSensorValueGet,"ax",%progbits
  47              		.align	2
  48              		.p2align 4,,15
  49              		.global	vexSensorValueGet
  50              		.thumb
  51              		.thumb_func
  52              		.type	vexSensorValueGet, %function
  53              	vexSensorValueGet:
  54              	.LFB64:
  55              		.loc 1 79 0
  56              		.cfi_startproc
  57              		@ args = 0, pretend = 0, frame = 0
ARM GAS  /var/folders/vt/qg0v_q5n5k99pnp_yg24c7s80000gn/T//ccb0Rb4N.s 			page 2


  58              		@ frame_needed = 0, uses_anonymous_args = 0
  59              	.LVL2:
  60              		.loc 1 80 0
  61 0000 0728     		cmp	r0, #7
  62              		.loc 1 79 0
  63 0002 10B5     		push	{r4, lr}
  64              		.cfi_def_cfa_offset 8
  65              		.cfi_offset 4, -8
  66              		.cfi_offset 14, -4
  67              		.loc 1 80 0
  68 0004 26DD     		ble	.L17
  69              		.loc 1 83 0
  70 0006 1328     		cmp	r0, #19
  71 0008 08DD     		ble	.L18
  72              		.loc 1 119 0
  73 000a 1B28     		cmp	r0, #27
  74 000c 01DD     		ble	.L19
  75              	.LVL3:
  76              	.L14:
  77              		.loc 1 125 0
  78 000e 0020     		movs	r0, #0
  79              		.loc 1 126 0
  80 0010 10BD     		pop	{r4, pc}
  81              	.LVL4:
  82              	.L19:
  83              	.LBB2:
  84              		.loc 1 122 0
  85 0012 1438     		subs	r0, r0, #20
  86              	.LVL5:
  87              	.LBE2:
  88              		.loc 1 126 0
  89 0014 BDE81040 		pop	{r4, lr}
  90              		.cfi_remember_state
  91              		.cfi_restore 14
  92              		.cfi_restore 4
  93              		.cfi_def_cfa_offset 0
  94              	.LBB3:
  95              		.loc 1 122 0
  96 0018 FFF7FEBF 		b	vexImeGetCount
  97              	.LVL6:
  98              	.L18:
  99              		.cfi_restore_state
 100              	.LBE3:
 101              	.LBB4:
 102              		.loc 1 86 0
 103 001c 0838     		subs	r0, r0, #8
 104              	.LVL7:
 105              		.loc 1 87 0
 106 001e 44B2     		sxtb	r4, r0
 107 0020 2046     		mov	r0, r4
 108 0022 FFF7FEFF 		bl	vexDigitalTypeGet
 109              	.LVL8:
 110              		.loc 1 89 0
 111 0026 0138     		subs	r0, r0, #1
 112              	.LVL9:
 113 0028 0728     		cmp	r0, #7
 114 002a F0D8     		bhi	.L14
ARM GAS  /var/folders/vt/qg0v_q5n5k99pnp_yg24c7s80000gn/T//ccb0Rb4N.s 			page 3


 115 002c 01A3     		adr	r3, .L7
 116 002e 53F820F0 		ldr	pc, [r3, r0, lsl #2]
 117 0032 00BF     		.p2align 2
 118              	.L7:
 119 0034 5B000000 		.word	.L12+1
 120 0038 5B000000 		.word	.L12+1
 121 003c 63000000 		.word	.L9+1
 122 0040 81000000 		.word	.L10+1
 123 0044 73000000 		.word	.L11+1
 124 0048 0F000000 		.word	.L14+1
 125 004c 0F000000 		.word	.L14+1
 126 0050 5B000000 		.word	.L12+1
 127              	.LVL10:
 128              		.p2align 1
 129              	.L17:
 130              	.LBE4:
 131              		.loc 1 81 0
 132 0054 FFF7FEFF 		bl	vexAdcGet
 133              	.LVL11:
 134 0058 10BD     		pop	{r4, pc}
 135              	.LVL12:
 136              	.L12:
 137              	.LBB5:
 138              		.loc 1 100 0
 139 005a 2046     		mov	r0, r4
 140 005c FFF7FEFF 		bl	vexDigitalPinGet
 141              	.LVL13:
 142 0060 10BD     		pop	{r4, pc}
 143              	.LVL14:
 144              	.L9:
 145              		.loc 1 103 0
 146 0062 2046     		mov	r0, r4
 147 0064 FFF7FEFF 		bl	vexDigitalChannelGet
 148              	.LVL15:
 149              	.LBE5:
 150              		.loc 1 126 0
 151 0068 BDE81040 		pop	{r4, lr}
 152              		.cfi_remember_state
 153              		.cfi_restore 14
 154              		.cfi_restore 4
 155              		.cfi_def_cfa_offset 0
 156              	.LVL16:
 157              	.LBB6:
 158              		.loc 1 104 0
 159 006c 00B2     		sxth	r0, r0
 160 006e FFF7FEBF 		b	vexEncoderGet
 161              	.LVL17:
 162              	.L11:
 163              		.cfi_restore_state
 164              		.loc 1 111 0
 165 0072 2046     		mov	r0, r4
 166 0074 FFF7FEFF 		bl	vexDigitalChannelGet
 167              	.LVL18:
 168              		.loc 1 112 0
 169 0078 C0B2     		uxtb	r0, r0
 170              	.LVL19:
 171 007a FFF7FEFF 		bl	vexSonarGetInch
ARM GAS  /var/folders/vt/qg0v_q5n5k99pnp_yg24c7s80000gn/T//ccb0Rb4N.s 			page 4


 172              	.LVL20:
 173 007e 10BD     		pop	{r4, pc}
 174              	.LVL21:
 175              	.L10:
 176              		.loc 1 107 0
 177 0080 2046     		mov	r0, r4
 178 0082 FFF7FEFF 		bl	vexDigitalChannelGet
 179              	.LVL22:
 180              		.loc 1 108 0
 181 0086 C0B2     		uxtb	r0, r0
 182              	.LVL23:
 183 0088 FFF7FEFF 		bl	vexSonarGetCm
 184              	.LVL24:
 185 008c 10BD     		pop	{r4, pc}
 186              	.LBE6:
 187              		.cfi_endproc
 188              	.LFE64:
 189              		.size	vexSensorValueGet, .-vexSensorValueGet
 190 008e 00BF     		.section	.text.vexSensorValueSet,"ax",%progbits
 191              		.align	2
 192              		.p2align 4,,15
 193              		.global	vexSensorValueSet
 194              		.thumb
 195              		.thumb_func
 196              		.type	vexSensorValueSet, %function
 197              	vexSensorValueSet:
 198              	.LFB65:
 199              		.loc 1 138 0
 200              		.cfi_startproc
 201              		@ args = 0, pretend = 0, frame = 0
 202              		@ frame_needed = 0, uses_anonymous_args = 0
 203              	.LVL25:
 204              		.loc 1 139 0
 205 0000 0728     		cmp	r0, #7
 206 0002 03DD     		ble	.L26
 207              		.loc 1 142 0
 208 0004 1328     		cmp	r0, #19
 209 0006 02DD     		ble	.L27
 210              		.loc 1 172 0
 211 0008 1B28     		cmp	r0, #27
 212 000a 0DDD     		ble	.L28
 213              	.L26:
 214 000c 7047     		bx	lr
 215              	.L27:
 216              		.loc 1 138 0
 217 000e 38B5     		push	{r3, r4, r5, lr}
 218              		.cfi_def_cfa_offset 16
 219              		.cfi_offset 3, -16
 220              		.cfi_offset 4, -12
 221              		.cfi_offset 5, -8
 222              		.cfi_offset 14, -4
 223              	.LBB7:
 224              		.loc 1 145 0
 225 0010 A0F10804 		sub	r4, r0, #8
 226              	.LVL26:
 227              		.loc 1 146 0
 228 0014 64B2     		sxtb	r4, r4
ARM GAS  /var/folders/vt/qg0v_q5n5k99pnp_yg24c7s80000gn/T//ccb0Rb4N.s 			page 5


 229 0016 2046     		mov	r0, r4
 230              	.LVL27:
 231 0018 0D46     		mov	r5, r1
 232 001a FFF7FEFF 		bl	vexDigitalTypeGet
 233              	.LVL28:
 234              		.loc 1 148 0
 235 001e 0228     		cmp	r0, #2
 236 0020 0ED0     		beq	.L23
 237 0022 0328     		cmp	r0, #3
 238 0024 03D0     		beq	.L24
 239 0026 38BD     		pop	{r3, r4, r5, pc}
 240              	.LVL29:
 241              	.L28:
 242              		.cfi_def_cfa_offset 0
 243              		.cfi_restore 3
 244              		.cfi_restore 4
 245              		.cfi_restore 5
 246              		.cfi_restore 14
 247              	.LBE7:
 248              	.LBB8:
 249              		.loc 1 175 0
 250 0028 1438     		subs	r0, r0, #20
 251              	.LVL30:
 252 002a FFF7FEBF 		b	vexImeSetCount
 253              	.LVL31:
 254              	.L24:
 255              		.cfi_def_cfa_offset 16
 256              		.cfi_offset 3, -16
 257              		.cfi_offset 4, -12
 258              		.cfi_offset 5, -8
 259              		.cfi_offset 14, -4
 260              	.LBE8:
 261              	.LBB9:
 262              		.loc 1 160 0
 263 002e 2046     		mov	r0, r4
 264              	.LVL32:
 265 0030 FFF7FEFF 		bl	vexDigitalChannelGet
 266              	.LVL33:
 267              		.loc 1 161 0
 268 0034 2946     		mov	r1, r5
 269              	.LBE9:
 270              		.loc 1 179 0
 271 0036 BDE83840 		pop	{r3, r4, r5, lr}
 272              		.cfi_remember_state
 273              		.cfi_restore 14
 274              		.cfi_restore 5
 275              		.cfi_restore 4
 276              		.cfi_restore 3
 277              		.cfi_def_cfa_offset 0
 278              	.LVL34:
 279              	.LBB10:
 280              		.loc 1 161 0
 281 003a 00B2     		sxth	r0, r0
 282 003c FFF7FEBF 		b	vexEncoderSet
 283              	.LVL35:
 284              	.L23:
 285              		.cfi_restore_state
ARM GAS  /var/folders/vt/qg0v_q5n5k99pnp_yg24c7s80000gn/T//ccb0Rb4N.s 			page 6


 286              		.loc 1 157 0
 287 0040 E9B2     		uxtb	r1, r5
 288 0042 2046     		mov	r0, r4
 289              	.LVL36:
 290              	.LBE10:
 291              		.loc 1 179 0
 292 0044 BDE83840 		pop	{r3, r4, r5, lr}
 293              		.cfi_restore 14
 294              		.cfi_restore 5
 295              		.cfi_restore 4
 296              		.cfi_restore 3
 297              		.cfi_def_cfa_offset 0
 298              	.LVL37:
 299              	.LBB11:
 300              		.loc 1 157 0
 301 0048 FFF7FEBF 		b	vexDigitalPinSet
 302              	.LVL38:
 303              	.LBE11:
 304              		.cfi_endproc
 305              	.LFE65:
 306              		.size	vexSensorValueSet, .-vexSensorValueSet
 307              		.text
 308              	.Letext0:
 309              		.file 2 "/usr/local/gcc-arm-none-eabi-5_2-2015q4/arm-none-eabi/include/machine/_default_types.h"
 310              		.file 3 "/usr/local/gcc-arm-none-eabi-5_2-2015q4/arm-none-eabi/include/sys/_stdint.h"
 311              		.file 4 "../../ChibiOS/os/ports/GCC/ARMCMx/chtypes.h"
 312              		.file 5 "../../convex/convex/cortex/fw/vexdigital.h"
 313              		.file 6 "../../convex/convex/cortex/fw/vexconfig.h"
 314              		.file 7 "../../convex/convex/cortex/fw/vexsensor.h"
 315              		.file 8 "../../convex/convex/cortex/fw/vexime.h"
 316              		.file 9 "../../convex/convex/cortex/fw/vexencoder.h"
 317              		.file 10 "../../convex/convex/cortex/fw/vexsonar.h"
 318              		.file 11 "../../convex/convex/cortex/fw/vexanalog.h"
 319              		.file 12 "../../ChibiOS/os/ports/common/ARMCMx/CMSIS/include/core_cm3.h"