ARM GAS  /var/folders/vt/qg0v_q5n5k99pnp_yg24c7s80000gn/T//ccSQB9Ph.s 			page 1


   1              		.syntax unified
   2              		.cpu cortex-m3
   3              		.fpu softvfp
   4              		.eabi_attribute 20, 1
   5              		.eabi_attribute 21, 1
   6              		.eabi_attribute 23, 3
   7              		.eabi_attribute 24, 1
   8              		.eabi_attribute 25, 1
   9              		.eabi_attribute 26, 1
  10              		.eabi_attribute 30, 2
  11              		.eabi_attribute 34, 1
  12              		.eabi_attribute 18, 4
  13              		.thumb
  14              		.syntax unified
  15              		.file	"vexshell.c"
  16              		.text
  17              	.Ltext0:
  18              		.cfi_sections	.debug_frame
  19              		.section	.text.cmd_flags,"ax",%progbits
  20              		.align	2
  21              		.p2align 4,,15
  22              		.thumb
  23              		.thumb_func
  24              		.type	cmd_flags, %function
  25              	cmd_flags:
  26              	.LFB71:
  27              		.file 1 "../../convex/convex/cortex/fw/vexshell.c"
  28              		.loc 1 272 0
  29              		.cfi_startproc
  30              		@ args = 0, pretend = 0, frame = 0
  31              		@ frame_needed = 0, uses_anonymous_args = 0
  32              	.LVL0:
  33              		.loc 1 273 0
  34 0000 0129     		cmp	r1, #1
  35              		.loc 1 272 0
  36 0002 70B5     		push	{r4, r5, r6, lr}
  37              		.cfi_def_cfa_offset 16
  38              		.cfi_offset 4, -16
  39              		.cfi_offset 5, -12
  40              		.cfi_offset 6, -8
  41              		.cfi_offset 14, -4
  42              		.loc 1 272 0
  43 0004 0646     		mov	r6, r0
  44              		.loc 1 273 0
  45 0006 4EDD     		ble	.L13
  46              		.loc 1 280 0
  47 0008 1568     		ldr	r5, [r2]
  48 000a 2D49     		ldr	r1, .L18
  49              	.LVL1:
  50 000c 2846     		mov	r0, r5
  51              	.LVL2:
  52 000e 1446     		mov	r4, r2
  53 0010 FFF7FEFF 		bl	strcasecmp
  54              	.LVL3:
  55 0014 68B9     		cbnz	r0, .L3
  56              		.loc 1 281 0
  57 0016 6568     		ldr	r5, [r4, #4]
ARM GAS  /var/folders/vt/qg0v_q5n5k99pnp_yg24c7s80000gn/T//ccSQB9Ph.s 			page 2


  58 0018 2A49     		ldr	r1, .L18+4
  59 001a 2846     		mov	r0, r5
  60 001c FFF7FEFF 		bl	strcasecmp
  61              	.LVL4:
  62 0020 0028     		cmp	r0, #0
  63 0022 37D0     		beq	.L14
  64              	.L4:
  65              		.loc 1 285 0
  66 0024 2846     		mov	r0, r5
  67 0026 2849     		ldr	r1, .L18+8
  68 0028 FFF7FEFF 		bl	strcasecmp
  69              	.LVL5:
  70 002c 0346     		mov	r3, r0
  71 002e 50B3     		cbz	r0, .L15
  72              	.L11:
  73 0030 2568     		ldr	r5, [r4]
  74              	.L3:
  75              		.loc 1 290 0
  76 0032 2846     		mov	r0, r5
  77 0034 2549     		ldr	r1, .L18+12
  78 0036 FFF7FEFF 		bl	strcasecmp
  79              	.LVL6:
  80 003a 58B9     		cbnz	r0, .L1
  81              		.loc 1 291 0
  82 003c 6568     		ldr	r5, [r4, #4]
  83 003e 2149     		ldr	r1, .L18+4
  84 0040 2846     		mov	r0, r5
  85 0042 FFF7FEFF 		bl	strcasecmp
  86              	.LVL7:
  87 0046 70B1     		cbz	r0, .L16
  88              		.loc 1 295 0
  89 0048 2846     		mov	r0, r5
  90 004a 1F49     		ldr	r1, .L18+8
  91 004c FFF7FEFF 		bl	strcasecmp
  92              	.LVL8:
  93 0050 0346     		mov	r3, r0
  94 0052 00B1     		cbz	r0, .L17
  95              	.L1:
  96 0054 70BD     		pop	{r4, r5, r6, pc}
  97              	.LVL9:
  98              	.L17:
  99              		.loc 1 296 0
 100 0056 1E4A     		ldr	r2, .L18+16
 101              		.loc 1 297 0
 102 0058 3046     		mov	r0, r6
 103              		.loc 1 300 0
 104 005a BDE87040 		pop	{r4, r5, r6, lr}
 105              		.cfi_remember_state
 106              		.cfi_restore 14
 107              		.cfi_restore 6
 108              		.cfi_restore 5
 109              		.cfi_restore 4
 110              		.cfi_def_cfa_offset 0
 111              	.LVL10:
 112              		.loc 1 297 0
 113 005e 1D49     		ldr	r1, .L18+20
 114              		.loc 1 296 0
ARM GAS  /var/folders/vt/qg0v_q5n5k99pnp_yg24c7s80000gn/T//ccSQB9Ph.s 			page 3


 115 0060 1370     		strb	r3, [r2]
 116              		.loc 1 297 0
 117 0062 FFF7FEBF 		b	vex_chprintf
 118              	.LVL11:
 119              	.L16:
 120              		.cfi_restore_state
 121              		.loc 1 292 0
 122 0066 1A4B     		ldr	r3, .L18+16
 123 0068 0122     		movs	r2, #1
 124              		.loc 1 293 0
 125 006a 1B49     		ldr	r1, .L18+24
 126 006c 3046     		mov	r0, r6
 127              		.loc 1 292 0
 128 006e 1A70     		strb	r2, [r3]
 129              		.loc 1 293 0
 130 0070 FFF7FEFF 		bl	vex_chprintf
 131              	.LVL12:
 132 0074 6568     		ldr	r5, [r4, #4]
 133              		.loc 1 295 0
 134 0076 1449     		ldr	r1, .L18+8
 135 0078 2846     		mov	r0, r5
 136 007a FFF7FEFF 		bl	strcasecmp
 137              	.LVL13:
 138 007e 0346     		mov	r3, r0
 139 0080 0028     		cmp	r0, #0
 140 0082 E7D1     		bne	.L1
 141 0084 E7E7     		b	.L17
 142              	.L15:
 143              		.loc 1 286 0
 144 0086 154A     		ldr	r2, .L18+28
 145              		.loc 1 287 0
 146 0088 1549     		ldr	r1, .L18+32
 147 008a 3046     		mov	r0, r6
 148              		.loc 1 286 0
 149 008c 1370     		strb	r3, [r2]
 150              		.loc 1 287 0
 151 008e FFF7FEFF 		bl	vex_chprintf
 152              	.LVL14:
 153 0092 CDE7     		b	.L11
 154              	.L14:
 155              		.loc 1 282 0
 156 0094 114B     		ldr	r3, .L18+28
 157 0096 0122     		movs	r2, #1
 158              		.loc 1 283 0
 159 0098 1249     		ldr	r1, .L18+36
 160 009a 3046     		mov	r0, r6
 161              		.loc 1 282 0
 162 009c 1A70     		strb	r2, [r3]
 163              		.loc 1 283 0
 164 009e FFF7FEFF 		bl	vex_chprintf
 165              	.LVL15:
 166 00a2 6568     		ldr	r5, [r4, #4]
 167 00a4 BEE7     		b	.L4
 168              	.LVL16:
 169              	.L13:
 170              		.loc 1 274 0
 171 00a6 1049     		ldr	r1, .L18+40
ARM GAS  /var/folders/vt/qg0v_q5n5k99pnp_yg24c7s80000gn/T//ccSQB9Ph.s 			page 4


 172              	.LVL17:
 173 00a8 FFF7FEFF 		bl	vex_chprintf
 174              	.LVL18:
 175              		.loc 1 275 0
 176 00ac 0F49     		ldr	r1, .L18+44
 177 00ae 3046     		mov	r0, r6
 178 00b0 FFF7FEFF 		bl	vex_chprintf
 179              	.LVL19:
 180              		.loc 1 276 0
 181 00b4 3046     		mov	r0, r6
 182              		.loc 1 300 0
 183 00b6 BDE87040 		pop	{r4, r5, r6, lr}
 184              		.cfi_restore 14
 185              		.cfi_restore 6
 186              		.cfi_restore 5
 187              		.cfi_restore 4
 188              		.cfi_def_cfa_offset 0
 189              	.LVL20:
 190              		.loc 1 276 0
 191 00ba 0D49     		ldr	r1, .L18+48
 192 00bc FFF7FEBF 		b	vex_chprintf
 193              	.LVL21:
 194              	.L19:
 195              		.align	2
 196              	.L18:
 197 00c0 48000000 		.word	.LC3
 198 00c4 50000000 		.word	.LC4
 199 00c8 64000000 		.word	.LC6
 200 00cc 78000000 		.word	.LC8
 201 00d0 00000000 		.word	.LANCHOR1
 202 00d4 94000000 		.word	.LC10
 203 00d8 80000000 		.word	.LC9
 204 00dc 00000000 		.word	.LANCHOR0
 205 00e0 68000000 		.word	.LC7
 206 00e4 54000000 		.word	.LC5
 207 00e8 00000000 		.word	.LC0
 208 00ec 20000000 		.word	.LC1
 209 00f0 30000000 		.word	.LC2
 210              		.cfi_endproc
 211              	.LFE71:
 212              		.size	cmd_flags, .-cmd_flags
 213              		.section	.text.cmd_systime,"ax",%progbits
 214              		.align	2
 215              		.p2align 4,,15
 216              		.thumb
 217              		.thumb_func
 218              		.type	cmd_systime, %function
 219              	cmd_systime:
 220              	.LFB67:
 221              		.loc 1 181 0
 222              		.cfi_startproc
 223              		@ args = 0, pretend = 0, frame = 0
 224              		@ frame_needed = 0, uses_anonymous_args = 0
 225              		@ link register save eliminated.
 226              	.LVL22:
 227              		.loc 1 183 0
 228 0000 0029     		cmp	r1, #0
ARM GAS  /var/folders/vt/qg0v_q5n5k99pnp_yg24c7s80000gn/T//ccSQB9Ph.s 			page 5


 229 0002 03DD     		ble	.L21
 230              	.LVL23:
 231              	.LBB29:
 232              	.LBB30:
 233              		.loc 1 116 0
 234 0004 044A     		ldr	r2, .L22
 235              	.LVL24:
 236 0006 0549     		ldr	r1, .L22+4
 237              	.LVL25:
 238 0008 FFF7FEBF 		b	vex_chprintf
 239              	.LVL26:
 240              	.L21:
 241              	.LBE30:
 242              	.LBE29:
 243              	.LBB31:
 244              	.LBB32:
 245              		.loc 1 187 0
 246 000c 044B     		ldr	r3, .L22+8
 247 000e 0549     		ldr	r1, .L22+12
 248              	.LVL27:
 249 0010 DA68     		ldr	r2, [r3, #12]
 250              	.LVL28:
 251 0012 FFF7FEBF 		b	vex_chprintf
 252              	.LVL29:
 253              	.L23:
 254 0016 00BF     		.align	2
 255              	.L22:
 256 0018 A8000000 		.word	.LC11
 257 001c B0000000 		.word	.LC12
 258 0020 00000000 		.word	vtlist
 259 0024 BC000000 		.word	.LC13
 260              	.LBE32:
 261              	.LBE31:
 262              		.cfi_endproc
 263              	.LFE67:
 264              		.size	cmd_systime, .-cmd_systime
 265              		.section	.text.cmd_info,"ax",%progbits
 266              		.align	2
 267              		.p2align 4,,15
 268              		.thumb
 269              		.thumb_func
 270              		.type	cmd_info, %function
 271              	cmd_info:
 272              	.LFB66:
 273              		.loc 1 137 0
 274              		.cfi_startproc
 275              		@ args = 0, pretend = 0, frame = 0
 276              		@ frame_needed = 0, uses_anonymous_args = 0
 277              	.LVL30:
 278              		.loc 1 139 0
 279 0000 0029     		cmp	r1, #0
 280 0002 03DD     		ble	.L25
 281              	.LVL31:
 282              	.LBB39:
 283              	.LBB40:
 284              		.loc 1 116 0
 285 0004 214A     		ldr	r2, .L27
ARM GAS  /var/folders/vt/qg0v_q5n5k99pnp_yg24c7s80000gn/T//ccSQB9Ph.s 			page 6


 286              	.LVL32:
 287 0006 2249     		ldr	r1, .L27+4
 288              	.LVL33:
 289 0008 FFF7FEBF 		b	vex_chprintf
 290              	.LVL34:
 291              	.L25:
 292              	.LBE40:
 293              	.LBE39:
 294              		.loc 1 137 0
 295 000c 10B5     		push	{r4, lr}
 296              		.cfi_def_cfa_offset 8
 297              		.cfi_offset 4, -8
 298              		.cfi_offset 14, -4
 299 000e 0446     		mov	r4, r0
 300              	.LVL35:
 301 0010 82B0     		sub	sp, sp, #8
 302              		.cfi_def_cfa_offset 16
 303              	.LBB41:
 304              	.LBB42:
 305              		.loc 1 144 0
 306 0012 204A     		ldr	r2, .L27+8
 307              	.LVL36:
 308 0014 2049     		ldr	r1, .L27+12
 309              	.LVL37:
 310 0016 FFF7FEFF 		bl	vex_chprintf
 311              	.LVL38:
 312              		.loc 1 146 0
 313 001a 204A     		ldr	r2, .L27+16
 314 001c 2049     		ldr	r1, .L27+20
 315 001e 2046     		mov	r0, r4
 316 0020 FFF7FEFF 		bl	vex_chprintf
 317              	.LVL39:
 318              		.loc 1 148 0
 319 0024 1F4A     		ldr	r2, .L27+24
 320 0026 2049     		ldr	r1, .L27+28
 321 0028 2046     		mov	r0, r4
 322 002a FFF7FEFF 		bl	vex_chprintf
 323              	.LVL40:
 324              		.loc 1 150 0
 325 002e 1F4A     		ldr	r2, .L27+32
 326 0030 1F49     		ldr	r1, .L27+36
 327 0032 2046     		mov	r0, r4
 328 0034 FFF7FEFF 		bl	vex_chprintf
 329              	.LVL41:
 330              		.loc 1 153 0
 331 0038 1E4A     		ldr	r2, .L27+40
 332 003a 1F49     		ldr	r1, .L27+44
 333 003c 2046     		mov	r0, r4
 334 003e FFF7FEFF 		bl	vex_chprintf
 335              	.LVL42:
 336              		.loc 1 156 0
 337 0042 1E4A     		ldr	r2, .L27+48
 338 0044 1E49     		ldr	r1, .L27+52
 339 0046 2046     		mov	r0, r4
 340 0048 FFF7FEFF 		bl	vex_chprintf
 341              	.LVL43:
 342              		.loc 1 159 0
ARM GAS  /var/folders/vt/qg0v_q5n5k99pnp_yg24c7s80000gn/T//ccSQB9Ph.s 			page 7


 343 004c 1D4A     		ldr	r2, .L27+56
 344 004e 1E49     		ldr	r1, .L27+60
 345 0050 2046     		mov	r0, r4
 346 0052 FFF7FEFF 		bl	vex_chprintf
 347              	.LVL44:
 348              		.loc 1 162 0
 349 0056 1D4A     		ldr	r2, .L27+64
 350 0058 1D49     		ldr	r1, .L27+68
 351 005a 2046     		mov	r0, r4
 352 005c FFF7FEFF 		bl	vex_chprintf
 353              	.LVL45:
 354              		.loc 1 166 0
 355 0060 1C4A     		ldr	r2, .L27+72
 356 0062 1D4B     		ldr	r3, .L27+76
 357 0064 0092     		str	r2, [sp]
 358 0066 1D49     		ldr	r1, .L27+80
 359 0068 1D4A     		ldr	r2, .L27+84
 360 006a 2046     		mov	r0, r4
 361 006c FFF7FEFF 		bl	vex_chprintf
 362              	.LVL46:
 363              		.loc 1 170 0
 364 0070 1C4A     		ldr	r2, .L27+88
 365 0072 1D49     		ldr	r1, .L27+92
 366 0074 2046     		mov	r0, r4
 367 0076 FFF7FEFF 		bl	vex_chprintf
 368              	.LVL47:
 369              		.loc 1 173 0
 370 007a 2046     		mov	r0, r4
 371 007c 1B4A     		ldr	r2, .L27+96
 372 007e 1C49     		ldr	r1, .L27+100
 373              	.LBE42:
 374              	.LBE41:
 375              		.loc 1 175 0
 376 0080 02B0     		add	sp, sp, #8
 377              		.cfi_def_cfa_offset 8
 378              		@ sp needed
 379 0082 BDE81040 		pop	{r4, lr}
 380              		.cfi_restore 14
 381              		.cfi_restore 4
 382              		.cfi_def_cfa_offset 0
 383              	.LVL48:
 384              	.LBB44:
 385              	.LBB43:
 386              		.loc 1 173 0
 387 0086 FFF7FEBF 		b	vex_chprintf
 388              	.LVL49:
 389              	.L28:
 390 008a 00BF     		.align	2
 391              	.L27:
 392 008c C4000000 		.word	.LC14
 393 0090 B0000000 		.word	.LC12
 394 0094 CC000000 		.word	.LC15
 395 0098 D4000000 		.word	.LC16
 396 009c E8000000 		.word	.LC17
 397 00a0 30010000 		.word	.LC18
 398 00a4 44010000 		.word	.LC19
 399 00a8 4C010000 		.word	.LC20
ARM GAS  /var/folders/vt/qg0v_q5n5k99pnp_yg24c7s80000gn/T//ccSQB9Ph.s 			page 8


 400 00ac 60010000 		.word	.LC21
 401 00b0 6C010000 		.word	.LC22
 402 00b4 80010000 		.word	.LC23
 403 00b8 98010000 		.word	.LC24
 404 00bc AC010000 		.word	.LC25
 405 00c0 D4010000 		.word	.LC26
 406 00c4 E8010000 		.word	.LC27
 407 00c8 F4010000 		.word	.LC28
 408 00cc 08020000 		.word	.LC29
 409 00d0 10020000 		.word	.LC30
 410 00d4 4C020000 		.word	.LC34
 411 00d8 24020000 		.word	.LC31
 412 00dc 34020000 		.word	.LC33
 413 00e0 28020000 		.word	.LC32
 414 00e4 58020000 		.word	.LC35
 415 00e8 60020000 		.word	.LC36
 416 00ec 74020000 		.word	.LC37
 417 00f0 7C020000 		.word	.LC38
 418              	.LBE43:
 419              	.LBE44:
 420              		.cfi_endproc
 421              	.LFE66:
 422              		.size	cmd_info, .-cmd_info
 423              		.section	.text.cmd_reboot,"ax",%progbits
 424              		.align	2
 425              		.p2align 4,,15
 426              		.thumb
 427              		.thumb_func
 428              		.type	cmd_reboot, %function
 429              	cmd_reboot:
 430              	.LFB70:
 431              		.loc 1 258 0
 432              		.cfi_startproc
 433              		@ args = 0, pretend = 0, frame = 0
 434              		@ frame_needed = 0, uses_anonymous_args = 0
 435              	.LVL50:
 436              		.loc 1 260 0
 437 0000 0029     		cmp	r1, #0
 438 0002 02DD     		ble	.L30
 439              		.loc 1 261 0
 440 0004 0A49     		ldr	r1, .L33
 441              	.LVL51:
 442 0006 FFF7FEBF 		b	vex_chprintf
 443              	.LVL52:
 444              	.L30:
 445              		.loc 1 258 0
 446 000a 08B5     		push	{r3, lr}
 447              		.cfi_def_cfa_offset 8
 448              		.cfi_offset 3, -8
 449              		.cfi_offset 14, -4
 450              	.LBB53:
 451              	.LBB54:
 452              		.loc 1 264 0
 453 000c 0949     		ldr	r1, .L33+4
 454              	.LVL53:
 455 000e FFF7FEFF 		bl	vex_chprintf
 456              	.LVL54:
ARM GAS  /var/folders/vt/qg0v_q5n5k99pnp_yg24c7s80000gn/T//ccSQB9Ph.s 			page 9


 457              		.loc 1 265 0
 458 0012 6420     		movs	r0, #100
 459 0014 FFF7FEFF 		bl	chThdSleep
 460              	.LVL55:
 461              	.LBB55:
 462              	.LBB56:
 463              	.LBB57:
 464              	.LBB58:
 465              		.file 2 "../../ChibiOS/os/ports/common/ARMCMx/CMSIS/include/core_cmInstr.h"
 466              		.loc 2 343 0
 467              		.syntax unified
 468              	@ 343 "../../ChibiOS/os/ports/common/ARMCMx/CMSIS/include/core_cmInstr.h" 1
 469 0018 BFF34F8F 		dsb
 470              	@ 0 "" 2
 471              		.thumb
 472              		.syntax unified
 473              	.LBE58:
 474              	.LBE57:
 475              		.file 3 "../../ChibiOS/os/ports/common/ARMCMx/CMSIS/include/core_cm3.h"
 476              		.loc 3 1483 0
 477 001c 0649     		ldr	r1, .L33+8
 478 001e 074B     		ldr	r3, .L33+12
 479 0020 CA68     		ldr	r2, [r1, #12]
 480 0022 02F4E062 		and	r2, r2, #1792
 481 0026 1343     		orrs	r3, r3, r2
 482              		.loc 3 1482 0
 483 0028 CB60     		str	r3, [r1, #12]
 484              	.LBB59:
 485              	.LBB60:
 486              		.loc 2 343 0
 487              		.syntax unified
 488              	@ 343 "../../ChibiOS/os/ports/common/ARMCMx/CMSIS/include/core_cmInstr.h" 1
 489 002a BFF34F8F 		dsb
 490              	@ 0 "" 2
 491              		.thumb
 492              		.syntax unified
 493              	.L31:
 494 002e FEE7     		b	.L31
 495              	.L34:
 496              		.align	2
 497              	.L33:
 498 0030 90020000 		.word	.LC39
 499 0034 A0020000 		.word	.LC40
 500 0038 00ED00E0 		.word	-536810240
 501 003c 0400FA05 		.word	100270084
 502              	.LBE60:
 503              	.LBE59:
 504              	.LBE56:
 505              	.LBE55:
 506              	.LBE54:
 507              	.LBE53:
 508              		.cfi_endproc
 509              	.LFE70:
 510              		.size	cmd_reboot, .-cmd_reboot
 511              		.section	.text.cmd_threads,"ax",%progbits
 512              		.align	2
 513              		.p2align 4,,15
ARM GAS  /var/folders/vt/qg0v_q5n5k99pnp_yg24c7s80000gn/T//ccSQB9Ph.s 			page 10


 514              		.thumb
 515              		.thumb_func
 516              		.type	cmd_threads, %function
 517              	cmd_threads:
 518              	.LFB69:
 519              		.loc 1 224 0
 520              		.cfi_startproc
 521              		@ args = 0, pretend = 0, frame = 0
 522              		@ frame_needed = 0, uses_anonymous_args = 0
 523              	.LVL56:
 524              		.loc 1 229 0
 525 0000 0029     		cmp	r1, #0
 526 0002 02DD     		ble	.L36
 527              		.loc 1 231 0
 528 0004 1A49     		ldr	r1, .L44
 529              	.LVL57:
 530 0006 FFF7FEBF 		b	vex_chprintf
 531              	.LVL58:
 532              	.L36:
 533              		.loc 1 224 0
 534 000a F0B5     		push	{r4, r5, r6, r7, lr}
 535              		.cfi_def_cfa_offset 20
 536              		.cfi_offset 4, -20
 537              		.cfi_offset 5, -16
 538              		.cfi_offset 6, -12
 539              		.cfi_offset 7, -8
 540              		.cfi_offset 14, -4
 541              	.LBB63:
 542              	.LBB64:
 543              		.loc 1 235 0
 544 000c 1949     		ldr	r1, .L44+4
 545              	.LVL59:
 546              	.LBE64:
 547              	.LBE63:
 548              		.loc 1 224 0
 549 000e 85B0     		sub	sp, sp, #20
 550              		.cfi_def_cfa_offset 40
 551 0010 0646     		mov	r6, r0
 552              	.LVL60:
 553              	.LBB66:
 554              	.LBB65:
 555              		.loc 1 235 0
 556 0012 FFF7FEFF 		bl	vex_chprintf
 557              	.LVL61:
 558              		.loc 1 236 0
 559 0016 FFF7FEFF 		bl	chRegFirstThread
 560              	.LVL62:
 561 001a 174F     		ldr	r7, .L44+8
 562 001c 0446     		mov	r4, r0
 563              	.LVL63:
 564 001e 1BE0     		b	.L39
 565              	.LVL64:
 566              	.L43:
 567              		.loc 1 241 0
 568 0020 3046     		mov	r0, r6
 569 0022 FFF7FEFF 		bl	vex_chprintf
 570              	.LVL65:
ARM GAS  /var/folders/vt/qg0v_q5n5k99pnp_yg24c7s80000gn/T//ccSQB9Ph.s 			page 11


 571              	.L38:
 572              		.loc 1 248 0
 573 0026 226A     		ldr	r2, [r4, #32]
 574              		.loc 1 245 0
 575 0028 E368     		ldr	r3, [r4, #12]
 576 002a 0392     		str	r2, [sp, #12]
 577 002c 227F     		ldrb	r2, [r4, #28]	@ zero_extendqisi2
 578 002e 3046     		mov	r0, r6
 579 0030 57F82210 		ldr	r1, [r7, r2, lsl #2]
 580 0034 2246     		mov	r2, r4
 581 0036 0291     		str	r1, [sp, #8]
 582 0038 A57F     		ldrb	r5, [r4, #30]	@ zero_extendqisi2
 583 003a 1049     		ldr	r1, .L44+12
 584 003c 013D     		subs	r5, r5, #1
 585 003e 0195     		str	r5, [sp, #4]
 586 0040 A568     		ldr	r5, [r4, #8]
 587 0042 0095     		str	r5, [sp]
 588 0044 FFF7FEFF 		bl	vex_chprintf
 589              	.LVL66:
 590              		.loc 1 250 0
 591 0048 2046     		mov	r0, r4
 592 004a FFF7FEFF 		bl	chRegNextThread
 593              	.LVL67:
 594 004e 0446     		mov	r4, r0
 595              	.LVL68:
 596              		.loc 1 251 0
 597 0050 1420     		movs	r0, #20
 598              	.LVL69:
 599 0052 FFF7FEFF 		bl	chThdSleep
 600              	.LVL70:
 601              		.loc 1 252 0
 602 0056 44B1     		cbz	r4, .L42
 603              	.L39:
 604              		.loc 1 240 0
 605 0058 A269     		ldr	r2, [r4, #24]
 606              		.loc 1 241 0
 607 005a 0949     		ldr	r1, .L44+16
 608              		.loc 1 240 0
 609 005c 002A     		cmp	r2, #0
 610 005e DFD1     		bne	.L43
 611              		.loc 1 243 0
 612 0060 0849     		ldr	r1, .L44+20
 613 0062 3046     		mov	r0, r6
 614 0064 FFF7FEFF 		bl	vex_chprintf
 615              	.LVL71:
 616 0068 DDE7     		b	.L38
 617              	.L42:
 618              	.LBE65:
 619              	.LBE66:
 620              		.loc 1 253 0
 621 006a 05B0     		add	sp, sp, #20
 622              		.cfi_def_cfa_offset 20
 623              		@ sp needed
 624 006c F0BD     		pop	{r4, r5, r6, r7, pc}
 625              	.LVL72:
 626              	.L45:
 627 006e 00BF     		.align	2
ARM GAS  /var/folders/vt/qg0v_q5n5k99pnp_yg24c7s80000gn/T//ccSQB9Ph.s 			page 12


 628              	.L44:
 629 0070 B0020000 		.word	.LC41
 630 0074 C4020000 		.word	.LC42
 631 0078 00000000 		.word	.LANCHOR2
 632 007c 20030000 		.word	.LC45
 633 0080 04030000 		.word	.LC43
 634 0084 0C030000 		.word	.LC44
 635              		.cfi_endproc
 636              	.LFE69:
 637              		.size	cmd_threads, .-cmd_threads
 638              		.section	.text.cmd_mem,"ax",%progbits
 639              		.align	2
 640              		.p2align 4,,15
 641              		.thumb
 642              		.thumb_func
 643              		.type	cmd_mem, %function
 644              	cmd_mem:
 645              	.LFB68:
 646              		.loc 1 200 0
 647              		.cfi_startproc
 648              		@ args = 0, pretend = 0, frame = 8
 649              		@ frame_needed = 0, uses_anonymous_args = 0
 650              	.LVL73:
 651 0000 30B5     		push	{r4, r5, lr}
 652              		.cfi_def_cfa_offset 12
 653              		.cfi_offset 4, -12
 654              		.cfi_offset 5, -8
 655              		.cfi_offset 14, -4
 656              		.loc 1 205 0
 657 0002 0029     		cmp	r1, #0
 658              		.loc 1 200 0
 659 0004 83B0     		sub	sp, sp, #12
 660              		.cfi_def_cfa_offset 24
 661              		.loc 1 205 0
 662 0006 04DD     		ble	.L47
 663              		.loc 1 207 0
 664 0008 1349     		ldr	r1, .L50
 665              	.LVL74:
 666 000a FFF7FEFF 		bl	vex_chprintf
 667              	.LVL75:
 668              		.loc 1 218 0
 669 000e 03B0     		add	sp, sp, #12
 670              		.cfi_remember_state
 671              		.cfi_def_cfa_offset 12
 672              		@ sp needed
 673 0010 30BD     		pop	{r4, r5, pc}
 674              	.LVL76:
 675              	.L47:
 676              		.cfi_restore_state
 677 0012 0446     		mov	r4, r0
 678              	.LVL77:
 679              	.LBB69:
 680              	.LBB70:
 681              		.loc 1 211 0
 682 0014 01A9     		add	r1, sp, #4
 683              	.LVL78:
 684 0016 0020     		movs	r0, #0
ARM GAS  /var/folders/vt/qg0v_q5n5k99pnp_yg24c7s80000gn/T//ccSQB9Ph.s 			page 13


 685              	.LVL79:
 686 0018 FFF7FEFF 		bl	chHeapStatus
 687              	.LVL80:
 688 001c 0546     		mov	r5, r0
 689              	.LVL81:
 690              		.loc 1 212 0
 691 001e FFF7FEFF 		bl	chCoreStatus
 692              	.LVL82:
 693 0022 0E49     		ldr	r1, .L50+4
 694 0024 0246     		mov	r2, r0
 695 0026 2046     		mov	r0, r4
 696 0028 FFF7FEFF 		bl	vex_chprintf
 697              	.LVL83:
 698              		.loc 1 213 0
 699 002c 2A46     		mov	r2, r5
 700 002e 0C49     		ldr	r1, .L50+8
 701 0030 2046     		mov	r0, r4
 702 0032 FFF7FEFF 		bl	vex_chprintf
 703              	.LVL84:
 704              		.loc 1 214 0
 705 0036 019A     		ldr	r2, [sp, #4]
 706 0038 0A49     		ldr	r1, .L50+12
 707 003a 2046     		mov	r0, r4
 708 003c FFF7FEFF 		bl	vex_chprintf
 709              	.LVL85:
 710              		.loc 1 216 0
 711 0040 094A     		ldr	r2, .L50+16
 712 0042 0A4B     		ldr	r3, .L50+20
 713 0044 0A49     		ldr	r1, .L50+24
 714 0046 1344     		add	r3, r3, r2
 715 0048 5B1A     		subs	r3, r3, r1
 716              	.LVL86:
 717              		.loc 1 217 0
 718 004a 2046     		mov	r0, r4
 719 004c 1A46     		mov	r2, r3
 720 004e 0949     		ldr	r1, .L50+28
 721 0050 FFF7FEFF 		bl	vex_chprintf
 722              	.LVL87:
 723              	.LBE70:
 724              	.LBE69:
 725              		.loc 1 218 0
 726 0054 03B0     		add	sp, sp, #12
 727              		.cfi_def_cfa_offset 12
 728              		@ sp needed
 729 0056 30BD     		pop	{r4, r5, pc}
 730              	.LVL88:
 731              	.L51:
 732              		.align	2
 733              	.L50:
 734 0058 40030000 		.word	.LC46
 735 005c 50030000 		.word	.LC47
 736 0060 70030000 		.word	.LC48
 737 0064 88030000 		.word	.LC49
 738 0068 000000F8 		.word	_textdata-134217728
 739 006c 00000000 		.word	_edata
 740 0070 00000000 		.word	_data
 741 0074 A8030000 		.word	.LC50
ARM GAS  /var/folders/vt/qg0v_q5n5k99pnp_yg24c7s80000gn/T//ccSQB9Ph.s 			page 14


 742              		.cfi_endproc
 743              	.LFE68:
 744              		.size	cmd_mem, .-cmd_mem
 745              		.section	.text._strtok.constprop.5,"ax",%progbits
 746              		.align	2
 747              		.p2align 4,,15
 748              		.thumb
 749              		.thumb_func
 750              		.type	_strtok.constprop.5, %function
 751              	_strtok.constprop.5:
 752              	.LFB83:
 753              		.loc 1 93 0
 754              		.cfi_startproc
 755              		@ args = 0, pretend = 0, frame = 0
 756              		@ frame_needed = 0, uses_anonymous_args = 0
 757              	.LVL89:
 758 0000 38B5     		push	{r3, r4, r5, lr}
 759              		.cfi_def_cfa_offset 16
 760              		.cfi_offset 3, -16
 761              		.cfi_offset 4, -12
 762              		.cfi_offset 5, -8
 763              		.cfi_offset 14, -4
 764              		.loc 1 93 0
 765 0002 0D46     		mov	r5, r1
 766              		.loc 1 96 0
 767 0004 98B1     		cbz	r0, .L53
 768 0006 0446     		mov	r4, r0
 769              		.loc 1 97 0
 770 0008 2860     		str	r0, [r5]
 771              	.LVL90:
 772              	.L54:
 773              		.loc 1 103 0
 774 000a 0C49     		ldr	r1, .L64
 775              	.LVL91:
 776 000c 2046     		mov	r0, r4
 777              	.LVL92:
 778 000e FFF7FEFF 		bl	strspn
 779              	.LVL93:
 780 0012 0444     		add	r4, r4, r0
 781              	.LVL94:
 782              		.loc 1 104 0
 783 0014 2046     		mov	r0, r4
 784 0016 2021     		movs	r1, #32
 785 0018 FFF7FEFF 		bl	strchr
 786              	.LVL95:
 787              		.loc 1 105 0
 788 001c 60B1     		cbz	r0, .L63
 789              		.loc 1 106 0
 790 001e 421C     		adds	r2, r0, #1
 791 0020 0023     		movs	r3, #0
 792 0022 2A60     		str	r2, [r5]
 793 0024 0370     		strb	r3, [r0]
 794              	.L57:
 795              		.loc 1 108 0
 796 0026 2378     		ldrb	r3, [r4]	@ zero_extendqisi2
 797 0028 23B1     		cbz	r3, .L58
 798 002a 2046     		mov	r0, r4
ARM GAS  /var/folders/vt/qg0v_q5n5k99pnp_yg24c7s80000gn/T//ccSQB9Ph.s 			page 15


 799              		.loc 1 109 0
 800 002c 38BD     		pop	{r3, r4, r5, pc}
 801              	.LVL96:
 802              	.L53:
 803              		.loc 1 98 0
 804 002e 0C68     		ldr	r4, [r1]
 805              	.LVL97:
 806              		.loc 1 100 0
 807 0030 002C     		cmp	r4, #0
 808 0032 EAD1     		bne	.L54
 809              	.LVL98:
 810              	.L58:
 811              		.loc 1 101 0
 812 0034 0020     		movs	r0, #0
 813 0036 38BD     		pop	{r3, r4, r5, pc}
 814              	.LVL99:
 815              	.L63:
 816              		.loc 1 104 0
 817 0038 2860     		str	r0, [r5]
 818 003a F4E7     		b	.L57
 819              	.L65:
 820              		.align	2
 821              	.L64:
 822 003c 00000000 		.word	.LANCHOR3
 823              		.cfi_endproc
 824              	.LFE83:
 825              		.size	_strtok.constprop.5, .-_strtok.constprop.5
 826              		.section	.text.shellInit,"ax",%progbits
 827              		.align	2
 828              		.p2align 4,,15
 829              		.global	shellInit
 830              		.thumb
 831              		.thumb_func
 832              		.type	shellInit, %function
 833              	shellInit:
 834              	.LFB74:
 835              		.loc 1 439 0
 836              		.cfi_startproc
 837              		@ args = 0, pretend = 0, frame = 0
 838              		@ frame_needed = 0, uses_anonymous_args = 0
 839              		@ link register save eliminated.
 840              		.loc 1 440 0
 841 0000 014B     		ldr	r3, .L67
 842 0002 1B60     		str	r3, [r3]
 843 0004 7047     		bx	lr
 844              	.L68:
 845 0006 00BF     		.align	2
 846              	.L67:
 847 0008 00000000 		.word	.LANCHOR4
 848              		.cfi_endproc
 849              	.LFE74:
 850              		.size	shellInit, .-shellInit
 851              		.section	.text.shellCreate,"ax",%progbits
 852              		.align	2
 853              		.p2align 4,,15
 854              		.global	shellCreate
 855              		.thumb
ARM GAS  /var/folders/vt/qg0v_q5n5k99pnp_yg24c7s80000gn/T//ccSQB9Ph.s 			page 16


 856              		.thumb_func
 857              		.type	shellCreate, %function
 858              	shellCreate:
 859              	.LFB75:
 860              		.loc 1 455 0
 861              		.cfi_startproc
 862              		@ args = 0, pretend = 0, frame = 0
 863              		@ frame_needed = 0, uses_anonymous_args = 0
 864              	.LVL100:
 865 0000 00B5     		push	{lr}
 866              		.cfi_def_cfa_offset 4
 867              		.cfi_offset 14, -4
 868 0002 83B0     		sub	sp, sp, #12
 869              		.cfi_def_cfa_offset 16
 870              		.loc 1 456 0
 871 0004 0090     		str	r0, [sp]
 872 0006 034B     		ldr	r3, .L71
 873 0008 0020     		movs	r0, #0
 874              	.LVL101:
 875 000a FFF7FEFF 		bl	chThdCreateFromHeap
 876              	.LVL102:
 877              		.loc 1 457 0
 878 000e 03B0     		add	sp, sp, #12
 879              		.cfi_def_cfa_offset 4
 880              		@ sp needed
 881 0010 5DF804FB 		ldr	pc, [sp], #4
 882              	.L72:
 883              		.align	2
 884              	.L71:
 885 0014 00000000 		.word	shell_thread
 886              		.cfi_endproc
 887              	.LFE75:
 888              		.size	shellCreate, .-shellCreate
 889              		.section	.text.shellCreateStatic,"ax",%progbits
 890              		.align	2
 891              		.p2align 4,,15
 892              		.global	shellCreateStatic
 893              		.thumb
 894              		.thumb_func
 895              		.type	shellCreateStatic, %function
 896              	shellCreateStatic:
 897              	.LFB76:
 898              		.loc 1 471 0
 899              		.cfi_startproc
 900              		@ args = 0, pretend = 0, frame = 0
 901              		@ frame_needed = 0, uses_anonymous_args = 0
 902              	.LVL103:
 903 0000 10B5     		push	{r4, lr}
 904              		.cfi_def_cfa_offset 8
 905              		.cfi_offset 4, -8
 906              		.cfi_offset 14, -4
 907 0002 0C46     		mov	r4, r1
 908 0004 82B0     		sub	sp, sp, #8
 909              		.cfi_def_cfa_offset 16
 910              		.loc 1 472 0
 911 0006 1146     		mov	r1, r2
 912              	.LVL104:
ARM GAS  /var/folders/vt/qg0v_q5n5k99pnp_yg24c7s80000gn/T//ccSQB9Ph.s 			page 17


 913 0008 0090     		str	r0, [sp]
 914 000a 1A46     		mov	r2, r3
 915              	.LVL105:
 916 000c 2046     		mov	r0, r4
 917              	.LVL106:
 918 000e 024B     		ldr	r3, .L75
 919              	.LVL107:
 920 0010 FFF7FEFF 		bl	chThdCreateStatic
 921              	.LVL108:
 922              		.loc 1 473 0
 923 0014 02B0     		add	sp, sp, #8
 924              		.cfi_def_cfa_offset 8
 925              		@ sp needed
 926 0016 10BD     		pop	{r4, pc}
 927              	.LVL109:
 928              	.L76:
 929              		.align	2
 930              	.L75:
 931 0018 00000000 		.word	shell_thread
 932              		.cfi_endproc
 933              	.LFE76:
 934              		.size	shellCreateStatic, .-shellCreateStatic
 935              		.section	.text.shellGetLine,"ax",%progbits
 936              		.align	2
 937              		.p2align 4,,15
 938              		.global	shellGetLine
 939              		.thumb
 940              		.thumb_func
 941              		.type	shellGetLine, %function
 942              	shellGetLine:
 943              	.LFB77:
 944              		.loc 1 485 0
 945              		.cfi_startproc
 946              		@ args = 0, pretend = 0, frame = 16
 947              		@ frame_needed = 0, uses_anonymous_args = 0
 948              	.LVL110:
 949 0000 2DE9F04F 		push	{r4, r5, r6, r7, r8, r9, r10, fp, lr}
 950              		.cfi_def_cfa_offset 36
 951              		.cfi_offset 4, -36
 952              		.cfi_offset 5, -32
 953              		.cfi_offset 6, -28
 954              		.cfi_offset 7, -24
 955              		.cfi_offset 8, -20
 956              		.cfi_offset 9, -16
 957              		.cfi_offset 10, -12
 958              		.cfi_offset 11, -8
 959              		.cfi_offset 14, -4
 960 0004 8846     		mov	r8, r1
 961              	.LVL111:
 962 0006 0746     		mov	r7, r0
 963              		.loc 1 492 0
 964 0008 0E46     		mov	r6, r1
 965 000a 0D46     		mov	r5, r1
 966 000c DFF8BCA1 		ldr	r10, .L153+32
 967              		.loc 1 485 0
 968 0010 85B0     		sub	sp, sp, #20
 969              		.cfi_def_cfa_offset 56
ARM GAS  /var/folders/vt/qg0v_q5n5k99pnp_yg24c7s80000gn/T//ccSQB9Ph.s 			page 18


 970              		.loc 1 492 0
 971 0012 DAF80C30 		ldr	r3, [r10, #12]
 972              	.LBB71:
 973              		.loc 1 613 0
 974 0016 02F1FF39 		add	r9, r2, #-1
 975              	.LBE71:
 976              		.loc 1 492 0
 977 001a 0193     		str	r3, [sp, #4]
 978              	.LVL112:
 979              	.LBB72:
 980              		.loc 1 616 0
 981 001c DFF89CB1 		ldr	fp, .L153+16
 982              		.loc 1 613 0
 983 0020 01EB0903 		add	r3, r1, r9
 984              	.LVL113:
 985 0024 0093     		str	r3, [sp]
 986              	.LVL114:
 987              	.L143:
 988              	.LBE72:
 989              		.loc 1 495 0
 990 0026 0024     		movs	r4, #0
 991              	.LVL115:
 992              	.L78:
 993              	.LBB73:
 994              		.loc 1 501 0
 995 0028 3B68     		ldr	r3, [r7]
 996 002a 0122     		movs	r2, #1
 997 002c 5B68     		ldr	r3, [r3, #4]
 998 002e 0DF10F01 		add	r1, sp, #15
 999 0032 3846     		mov	r0, r7
 1000 0034 9847     		blx	r3
 1001              	.LVL116:
 1002 0036 0028     		cmp	r0, #0
 1003 0038 00F0A980 		beq	.L109
 1004              		.loc 1 510 0
 1005 003c 23B2     		sxth	r3, r4
 1006 003e 012B     		cmp	r3, #1
 1007 0040 35D0     		beq	.L148
 1008              		.loc 1 522 0
 1009 0042 022B     		cmp	r3, #2
 1010              		.loc 1 524 0
 1011 0044 9DF80F30 		ldrb	r3, [sp, #15]	@ zero_extendqisi2
 1012              		.loc 1 522 0
 1013 0048 3BD0     		beq	.L149
 1014              		.loc 1 546 0
 1015 004a 1B2B     		cmp	r3, #27
 1016 004c 37D0     		beq	.L115
 1017              	.L151:
 1018 004e 24D8     		bhi	.L89
 1019 0050 082B     		cmp	r3, #8
 1020 0052 7AD0     		beq	.L90
 1021 0054 0D2B     		cmp	r3, #13
 1022 0056 58D0     		beq	.L91
 1023 0058 042B     		cmp	r3, #4
 1024 005a 49D0     		beq	.L150
 1025              	.L87:
 1026              		.loc 1 612 0
ARM GAS  /var/folders/vt/qg0v_q5n5k99pnp_yg24c7s80000gn/T//ccSQB9Ph.s 			page 19


 1027 005c 1F2B     		cmp	r3, #31
 1028 005e E3D9     		bls	.L78
 1029              		.loc 1 613 0
 1030 0060 009A     		ldr	r2, [sp]
 1031 0062 9542     		cmp	r5, r2
 1032 0064 E0D2     		bcs	.L78
 1033              		.loc 1 616 0
 1034 0066 9BF80020 		ldrb	r2, [fp]	@ zero_extendqisi2
 1035              		.loc 1 614 0
 1036 006a 2B70     		strb	r3, [r5]
 1037 006c 0135     		adds	r5, r5, #1
 1038              	.LVL117:
 1039              		.loc 1 616 0
 1040 006e 002A     		cmp	r2, #0
 1041 0070 DAD0     		beq	.L78
 1042              		.loc 1 617 0
 1043 0072 4E4B     		ldr	r3, .L153
 1044 0074 1B78     		ldrb	r3, [r3]	@ zero_extendqisi2
 1045 0076 002B     		cmp	r3, #0
 1046 0078 40F08D80 		bne	.L103
 1047              	.L106:
 1048              		.loc 1 618 0
 1049 007c AE42     		cmp	r6, r5
 1050 007e 08D0     		beq	.L105
 1051              	.L107:
 1052              		.loc 1 619 0
 1053 0080 16F8012B 		ldrb	r2, [r6], #1	@ zero_extendqisi2
 1054              	.LVL118:
 1055 0084 4A49     		ldr	r1, .L153+4
 1056 0086 3846     		mov	r0, r7
 1057 0088 FFF7FEFF 		bl	vex_chprintf
 1058              	.LVL119:
 1059              		.loc 1 618 0
 1060 008c B542     		cmp	r5, r6
 1061 008e F7D1     		bne	.L107
 1062 0090 2E46     		mov	r6, r5
 1063              	.LVL120:
 1064              	.L105:
 1065              		.loc 1 622 0
 1066 0092 DAF80C30 		ldr	r3, [r10, #12]
 1067              	.LVL121:
 1068 0096 0193     		str	r3, [sp, #4]
 1069              	.LVL122:
 1070 0098 C6E7     		b	.L78
 1071              	.LVL123:
 1072              	.L89:
 1073              		.loc 1 546 0
 1074 009a 7F2B     		cmp	r3, #127
 1075 009c 55D0     		beq	.L90
 1076 009e C92B     		cmp	r3, #201
 1077 00a0 2ED0     		beq	.L93
 1078 00a2 212B     		cmp	r3, #33
 1079 00a4 DAD1     		bne	.L87
 1080              		.loc 1 608 0
 1081 00a6 6420     		movs	r0, #100
 1082 00a8 FFF7FEFF 		bl	chThdSleep
 1083              	.LVL124:
ARM GAS  /var/folders/vt/qg0v_q5n5k99pnp_yg24c7s80000gn/T//ccSQB9Ph.s 			page 20


 1084              		.loc 1 609 0
 1085 00ac BCE7     		b	.L78
 1086              	.L148:
 1087              		.loc 1 512 0
 1088 00ae 9DF80F30 		ldrb	r3, [sp, #15]	@ zero_extendqisi2
 1089 00b2 5B2B     		cmp	r3, #91
 1090 00b4 63D0     		beq	.L110
 1091              		.loc 1 546 0
 1092 00b6 1B2B     		cmp	r3, #27
 1093              		.loc 1 518 0
 1094 00b8 4FF00004 		mov	r4, #0
 1095              	.LVL125:
 1096              		.loc 1 546 0
 1097 00bc C7D1     		bne	.L151
 1098              	.L115:
 1099              		.loc 1 595 0
 1100 00be 0124     		movs	r4, #1
 1101              	.LVL126:
 1102 00c0 B2E7     		b	.L78
 1103              	.LVL127:
 1104              	.L149:
 1105              		.loc 1 524 0
 1106 00c2 412B     		cmp	r3, #65
 1107 00c4 AFD1     		bne	.L143
 1108              		.loc 1 527 0
 1109 00c6 9BF80030 		ldrb	r3, [fp]	@ zero_extendqisi2
 1110 00ca 002B     		cmp	r3, #0
 1111 00cc 59D1     		bne	.L152
 1112              	.L85:
 1113              	.LVL128:
 1114              		.loc 1 532 0
 1115 00ce 08EB0906 		add	r6, r8, r9
 1116              	.LVL129:
 1117 00d2 B542     		cmp	r5, r6
 1118 00d4 67D2     		bcs	.L112
 1119 00d6 374B     		ldr	r3, .L153+8
 1120 00d8 1C78     		ldrb	r4, [r3]	@ zero_extendqisi2
 1121              	.LVL130:
 1122 00da 3CB1     		cbz	r4, .L113
 1123              	.LVL131:
 1124              	.L86:
 1125              		.loc 1 533 0
 1126 00dc 05F8014B 		strb	r4, [r5], #1
 1127              	.LVL132:
 1128              		.loc 1 532 0
 1129 00e0 B542     		cmp	r5, r6
 1130 00e2 A0D0     		beq	.L143
 1131              		.loc 1 532 0 is_stmt 0 discriminator 1
 1132 00e4 13F8014F 		ldrb	r4, [r3, #1]!	@ zero_extendqisi2
 1133 00e8 002C     		cmp	r4, #0
 1134 00ea F7D1     		bne	.L86
 1135              	.LVL133:
 1136              	.L113:
 1137              		.loc 1 532 0
 1138 00ec 2E46     		mov	r6, r5
 1139 00ee 9BE7     		b	.L78
 1140              	.LVL134:
ARM GAS  /var/folders/vt/qg0v_q5n5k99pnp_yg24c7s80000gn/T//ccSQB9Ph.s 			page 21


 1141              	.L150:
 1142              		.loc 1 550 0 is_stmt 1
 1143 00f0 3846     		mov	r0, r7
 1144 00f2 3149     		ldr	r1, .L153+12
 1145 00f4 FFF7FEFF 		bl	vex_chprintf
 1146              	.LVL135:
 1147              		.loc 1 551 0
 1148 00f8 0120     		movs	r0, #1
 1149              	.LBE73:
 1150              		.loc 1 629 0
 1151 00fa 05B0     		add	sp, sp, #20
 1152              		.cfi_remember_state
 1153              		.cfi_def_cfa_offset 36
 1154              		@ sp needed
 1155 00fc BDE8F08F 		pop	{r4, r5, r6, r7, r8, r9, r10, fp, pc}
 1156              	.LVL136:
 1157              	.L93:
 1158              		.cfi_restore_state
 1159              	.LBB74:
 1160              		.loc 1 601 0
 1161 0100 4FF4FA70 		mov	r0, #500
 1162 0104 FFF7FEFF 		bl	chThdSleep
 1163              	.LVL137:
 1164              		.loc 1 602 0
 1165 0108 8EE7     		b	.L78
 1166              	.L91:
 1167              		.loc 1 577 0
 1168 010a 2C4B     		ldr	r3, .L153+16
 1169              		.loc 1 575 0
 1170 010c 0022     		movs	r2, #0
 1171              		.loc 1 577 0
 1172 010e 1B78     		ldrb	r3, [r3]	@ zero_extendqisi2
 1173              		.loc 1 575 0
 1174 0110 2A70     		strb	r2, [r5]
 1175              		.loc 1 577 0
 1176 0112 93B1     		cbz	r3, .L99
 1177              		.loc 1 579 0
 1178 0114 B542     		cmp	r5, r6
 1179 0116 04D0     		beq	.L100
 1180              		.loc 1 580 0
 1181 0118 3246     		mov	r2, r6
 1182 011a 2949     		ldr	r1, .L153+20
 1183 011c 3846     		mov	r0, r7
 1184 011e FFF7FEFF 		bl	vex_chprintf
 1185              	.LVL138:
 1186              	.L100:
 1187              		.loc 1 583 0 discriminator 1
 1188 0122 98F80030 		ldrb	r3, [r8]	@ zero_extendqisi2
 1189 0126 234A     		ldr	r2, .L153+8
 1190 0128 2BB1     		cbz	r3, .L101
 1191              	.LVL139:
 1192              	.L102:
 1193              		.loc 1 584 0 discriminator 3
 1194 012a 02F8013B 		strb	r3, [r2], #1
 1195              	.LVL140:
 1196              		.loc 1 583 0 discriminator 3
 1197 012e 18F8013F 		ldrb	r3, [r8, #1]!	@ zero_extendqisi2
ARM GAS  /var/folders/vt/qg0v_q5n5k99pnp_yg24c7s80000gn/T//ccSQB9Ph.s 			page 22


 1198              	.LVL141:
 1199 0132 002B     		cmp	r3, #0
 1200 0134 F9D1     		bne	.L102
 1201              	.LVL142:
 1202              	.L101:
 1203              		.loc 1 585 0
 1204 0136 0023     		movs	r3, #0
 1205 0138 1370     		strb	r3, [r2]
 1206              	.L99:
 1207              		.loc 1 589 0
 1208 013a 3846     		mov	r0, r7
 1209 013c 2149     		ldr	r1, .L153+24
 1210 013e FFF7FEFF 		bl	vex_chprintf
 1211              	.LVL143:
 1212              		.loc 1 590 0
 1213 0142 0020     		movs	r0, #0
 1214              	.LBE74:
 1215              		.loc 1 629 0
 1216 0144 05B0     		add	sp, sp, #20
 1217              		.cfi_remember_state
 1218              		.cfi_def_cfa_offset 36
 1219              		@ sp needed
 1220 0146 BDE8F08F 		pop	{r4, r5, r6, r7, r8, r9, r10, fp, pc}
 1221              	.LVL144:
 1222              	.L90:
 1223              		.cfi_restore_state
 1224              	.LBB75:
 1225              		.loc 1 557 0
 1226 014a 4545     		cmp	r5, r8
 1227 014c 3FF46CAF 		beq	.L78
 1228              		.loc 1 559 0
 1229 0150 9BF80030 		ldrb	r3, [fp]	@ zero_extendqisi2
 1230 0154 43B9     		cbnz	r3, .L144
 1231              		.loc 1 568 0
 1232 0156 013D     		subs	r5, r5, #1
 1233              	.LVL145:
 1234              		.loc 1 570 0
 1235 0158 2E46     		mov	r6, r5
 1236 015a 65E7     		b	.L78
 1237              	.LVL146:
 1238              	.L97:
 1239              		.loc 1 562 0
 1240 015c 16F8012B 		ldrb	r2, [r6], #1	@ zero_extendqisi2
 1241              	.LVL147:
 1242 0160 1349     		ldr	r1, .L153+4
 1243 0162 3846     		mov	r0, r7
 1244 0164 FFF7FEFF 		bl	vex_chprintf
 1245              	.LVL148:
 1246              	.L144:
 1247              		.loc 1 561 0
 1248 0168 B542     		cmp	r5, r6
 1249 016a F7D1     		bne	.L97
 1250              		.loc 1 564 0
 1251 016c 0823     		movs	r3, #8
 1252 016e 1A46     		mov	r2, r3
 1253 0170 1549     		ldr	r1, .L153+28
 1254 0172 3846     		mov	r0, r7
ARM GAS  /var/folders/vt/qg0v_q5n5k99pnp_yg24c7s80000gn/T//ccSQB9Ph.s 			page 23


 1255              		.loc 1 568 0
 1256 0174 013D     		subs	r5, r5, #1
 1257              	.LVL149:
 1258              		.loc 1 564 0
 1259 0176 FFF7FEFF 		bl	vex_chprintf
 1260              	.LVL150:
 1261              		.loc 1 570 0
 1262 017a 2E46     		mov	r6, r5
 1263 017c 54E7     		b	.L78
 1264              	.LVL151:
 1265              	.L110:
 1266              		.loc 1 514 0
 1267 017e 0224     		movs	r4, #2
 1268              	.LVL152:
 1269 0180 52E7     		b	.L78
 1270              	.LVL153:
 1271              	.L152:
 1272              		.loc 1 528 0
 1273 0182 0C4A     		ldr	r2, .L153+8
 1274 0184 0E49     		ldr	r1, .L153+20
 1275 0186 3846     		mov	r0, r7
 1276 0188 FFF7FEFF 		bl	vex_chprintf
 1277              	.LVL154:
 1278 018c 9FE7     		b	.L85
 1279              	.L109:
 1280              		.loc 1 502 0
 1281 018e 0120     		movs	r0, #1
 1282              	.LBE75:
 1283              		.loc 1 629 0
 1284 0190 05B0     		add	sp, sp, #20
 1285              		.cfi_remember_state
 1286              		.cfi_def_cfa_offset 36
 1287              		@ sp needed
 1288 0192 BDE8F08F 		pop	{r4, r5, r6, r7, r8, r9, r10, fp, pc}
 1289              	.LVL155:
 1290              	.L103:
 1291              		.cfi_restore_state
 1292              	.LBB76:
 1293              		.loc 1 617 0 discriminator 1
 1294 0196 DAF80C30 		ldr	r3, [r10, #12]
 1295 019a 019A     		ldr	r2, [sp, #4]
 1296 019c 9B1A     		subs	r3, r3, r2
 1297 019e 322B     		cmp	r3, #50
 1298 01a0 3FF66CAF 		bhi	.L106
 1299 01a4 75E7     		b	.L105
 1300              	.LVL156:
 1301              	.L112:
 1302              		.loc 1 532 0
 1303 01a6 2E46     		mov	r6, r5
 1304              		.loc 1 541 0
 1305 01a8 0024     		movs	r4, #0
 1306              	.LVL157:
 1307 01aa 3DE7     		b	.L78
 1308              	.L154:
 1309              		.align	2
 1310              	.L153:
 1311 01ac 00000000 		.word	.LANCHOR1
ARM GAS  /var/folders/vt/qg0v_q5n5k99pnp_yg24c7s80000gn/T//ccSQB9Ph.s 			page 24


 1312 01b0 E0030000 		.word	.LC55
 1313 01b4 00000000 		.word	.LANCHOR5
 1314 01b8 D4030000 		.word	.LC53
 1315 01bc 00000000 		.word	.LANCHOR0
 1316 01c0 D0030000 		.word	.LC52
 1317 01c4 E4030000 		.word	.LC56
 1318 01c8 D8030000 		.word	.LC54
 1319 01cc 00000000 		.word	vtlist
 1320              	.LBE76:
 1321              		.cfi_endproc
 1322              	.LFE77:
 1323              		.size	shellGetLine, .-shellGetLine
 1324              		.section	.text.shell_thread,"ax",%progbits
 1325              		.align	2
 1326              		.p2align 4,,15
 1327              		.thumb
 1328              		.thumb_func
 1329              		.type	shell_thread, %function
 1330              	shell_thread:
 1331              	.LFB73:
 1332              		.loc 1 346 0
 1333              		.cfi_startproc
 1334              		@ args = 0, pretend = 0, frame = 88
 1335              		@ frame_needed = 0, uses_anonymous_args = 0
 1336              	.LVL158:
 1337 0000 2DE9F041 		push	{r4, r5, r6, r7, r8, lr}
 1338              		.cfi_def_cfa_offset 24
 1339              		.cfi_offset 4, -24
 1340              		.cfi_offset 5, -20
 1341              		.cfi_offset 6, -16
 1342              		.cfi_offset 7, -12
 1343              		.cfi_offset 8, -8
 1344              		.cfi_offset 14, -4
 1345              		.loc 1 354 0
 1346 0004 634B     		ldr	r3, .L208
 1347              		.loc 1 349 0
 1348 0006 0668     		ldr	r6, [r0]
 1349              	.LVL159:
 1350              		.loc 1 354 0
 1351 0008 9B69     		ldr	r3, [r3, #24]
 1352 000a 634A     		ldr	r2, .L208+4
 1353              		.loc 1 346 0
 1354 000c 98B0     		sub	sp, sp, #96
 1355              		.cfi_def_cfa_offset 120
 1356              		.loc 1 350 0
 1357 000e D0F80480 		ldr	r8, [r0, #4]
 1358              	.LVL160:
 1359              		.loc 1 355 0
 1360 0012 6249     		ldr	r1, .L208+8
 1361              		.loc 1 354 0
 1362 0014 9A61     		str	r2, [r3, #24]
 1363              		.loc 1 355 0
 1364 0016 3046     		mov	r0, r6
 1365              	.LVL161:
 1366 0018 FFF7FEFF 		bl	vex_chprintf
 1367              	.LVL162:
 1368              		.loc 1 356 0
ARM GAS  /var/folders/vt/qg0v_q5n5k99pnp_yg24c7s80000gn/T//ccSQB9Ph.s 			page 25


 1369 001c 6049     		ldr	r1, .L208+12
 1370 001e 3046     		mov	r0, r6
 1371 0020 FFF7FEFF 		bl	vex_chprintf
 1372              	.LVL163:
 1373              		.loc 1 357 0
 1374 0024 5F4B     		ldr	r3, .L208+16
 1375 0026 604A     		ldr	r2, .L208+20
 1376 0028 6049     		ldr	r1, .L208+24
 1377 002a 3046     		mov	r0, r6
 1378 002c FFF7FEFF 		bl	vex_chprintf
 1379              	.LVL164:
 1380              		.loc 1 360 0
 1381 0030 5F4B     		ldr	r3, .L208+28
 1382 0032 3046     		mov	r0, r6
 1383 0034 0093     		str	r3, [sp]
 1384 0036 5F4A     		ldr	r2, .L208+32
 1385 0038 5F4B     		ldr	r3, .L208+36
 1386 003a 6049     		ldr	r1, .L208+40
 1387 003c FFF7FEFF 		bl	vex_chprintf
 1388              	.LVL165:
 1389              	.L157:
 1390              		.loc 1 366 0
 1391 0040 5F49     		ldr	r1, .L208+44
 1392 0042 3046     		mov	r0, r6
 1393 0044 FFF7FEFF 		bl	vex_chprintf
 1394              	.LVL166:
 1395              		.loc 1 367 0
 1396 0048 4022     		movs	r2, #64
 1397 004a 08A9     		add	r1, sp, #32
 1398 004c 3046     		mov	r0, r6
 1399 004e FFF7FEFF 		bl	shellGetLine
 1400              	.LVL167:
 1401 0052 0446     		mov	r4, r0
 1402 0054 78BB     		cbnz	r0, .L203
 1403              		.loc 1 373 0
 1404 0056 02A9     		add	r1, sp, #8
 1405 0058 08A8     		add	r0, sp, #32
 1406 005a FFF7FEFF 		bl	_strtok.constprop.5
 1407              	.LVL168:
 1408              		.loc 1 378 0
 1409 005e 02A9     		add	r1, sp, #8
 1410              		.loc 1 373 0
 1411 0060 0746     		mov	r7, r0
 1412              	.LVL169:
 1413              		.loc 1 378 0
 1414 0062 0020     		movs	r0, #0
 1415              	.LVL170:
 1416 0064 03AD     		add	r5, sp, #12
 1417 0066 FFF7FEFF 		bl	_strtok.constprop.5
 1418              	.LVL171:
 1419 006a 50B1     		cbz	r0, .L204
 1420              	.L163:
 1421              		.loc 1 380 0
 1422 006c 042C     		cmp	r4, #4
 1423 006e 1BD0     		beq	.L205
 1424              		.loc 1 386 0
 1425 0070 45F8040B 		str	r0, [r5], #4
ARM GAS  /var/folders/vt/qg0v_q5n5k99pnp_yg24c7s80000gn/T//ccSQB9Ph.s 			page 26


 1426              		.loc 1 378 0
 1427 0074 02A9     		add	r1, sp, #8
 1428 0076 0020     		movs	r0, #0
 1429              	.LVL172:
 1430              		.loc 1 386 0
 1431 0078 0134     		adds	r4, r4, #1
 1432              	.LVL173:
 1433              		.loc 1 378 0
 1434 007a FFF7FEFF 		bl	_strtok.constprop.5
 1435              	.LVL174:
 1436 007e 0028     		cmp	r0, #0
 1437 0080 F4D1     		bne	.L163
 1438              	.L204:
 1439              		.loc 1 388 0
 1440 0082 18AB     		add	r3, sp, #96
 1441 0084 03EB8403 		add	r3, r3, r4, lsl #2
 1442 0088 43F8540C 		str	r0, [r3, #-84]
 1443              		.loc 1 390 0
 1444 008c 002F     		cmp	r7, #0
 1445 008e D7D0     		beq	.L157
 1446              		.loc 1 392 0
 1447 0090 4C49     		ldr	r1, .L208+48
 1448 0092 3846     		mov	r0, r7
 1449              	.LVL175:
 1450 0094 FFF7FEFF 		bl	strcasecmp
 1451              	.LVL176:
 1452 0098 F8B9     		cbnz	r0, .L164
 1453              		.loc 1 394 0
 1454 009a 84B1     		cbz	r4, .L159
 1455              	.LVL177:
 1456              	.LBB90:
 1457              	.LBB91:
 1458              		.loc 1 116 0
 1459 009c 494A     		ldr	r2, .L208+48
 1460 009e 4A49     		ldr	r1, .L208+52
 1461 00a0 3046     		mov	r0, r6
 1462 00a2 FFF7FEFF 		bl	vex_chprintf
 1463              	.LVL178:
 1464              	.LBE91:
 1465              	.LBE90:
 1466              		.loc 1 397 0
 1467 00a6 CBE7     		b	.L157
 1468              	.LVL179:
 1469              	.L205:
 1470              		.loc 1 382 0
 1471 00a8 4849     		ldr	r1, .L208+56
 1472 00aa 3046     		mov	r0, r6
 1473              	.LVL180:
 1474 00ac FFF7FEFF 		bl	vex_chprintf
 1475              	.LVL181:
 1476              		.loc 1 388 0
 1477 00b0 0023     		movs	r3, #0
 1478 00b2 0793     		str	r3, [sp, #28]
 1479 00b4 C4E7     		b	.L157
 1480              	.LVL182:
 1481              	.L203:
 1482              		.loc 1 369 0
ARM GAS  /var/folders/vt/qg0v_q5n5k99pnp_yg24c7s80000gn/T//ccSQB9Ph.s 			page 27


 1483 00b6 3046     		mov	r0, r6
 1484 00b8 4549     		ldr	r1, .L208+60
 1485 00ba FFF7FEFF 		bl	vex_chprintf
 1486              	.LVL183:
 1487              	.L159:
 1488              	.LBB92:
 1489              		.loc 1 427 0
 1490 00be 2023     		movs	r3, #32
 1491              		.syntax unified
 1492              	@ 427 "../../convex/convex/cortex/fw/vexshell.c" 1
 1493 00c0 83F31188 		msr     BASEPRI, r3
 1494              	@ 0 "" 2
 1495              		.thumb
 1496              		.syntax unified
 1497              	.LBE92:
 1498              		.loc 1 428 0
 1499 00c4 0021     		movs	r1, #0
 1500 00c6 4348     		ldr	r0, .L208+64
 1501 00c8 FFF7FEFF 		bl	chEvtBroadcastFlagsI
 1502              	.LVL184:
 1503              		.loc 1 429 0
 1504 00cc 0020     		movs	r0, #0
 1505 00ce FFF7FEFF 		bl	chThdExitS
 1506              	.LVL185:
 1507              		.loc 1 432 0
 1508 00d2 0020     		movs	r0, #0
 1509 00d4 18B0     		add	sp, sp, #96
 1510              		.cfi_remember_state
 1511              		.cfi_def_cfa_offset 24
 1512              		@ sp needed
 1513 00d6 BDE8F081 		pop	{r4, r5, r6, r7, r8, pc}
 1514              	.LVL186:
 1515              	.L164:
 1516              		.cfi_restore_state
 1517              		.loc 1 402 0
 1518 00da 3F49     		ldr	r1, .L208+68
 1519 00dc 3846     		mov	r0, r7
 1520 00de FFF7FEFF 		bl	strcasecmp
 1521              	.LVL187:
 1522 00e2 30B9     		cbnz	r0, .L206
 1523              		.loc 1 404 0
 1524 00e4 BCB1     		cbz	r4, .L169
 1525              	.LVL188:
 1526              	.LBB93:
 1527              	.LBB94:
 1528              		.loc 1 116 0
 1529 00e6 3C4A     		ldr	r2, .L208+68
 1530 00e8 3749     		ldr	r1, .L208+52
 1531 00ea 3046     		mov	r0, r6
 1532 00ec FFF7FEFF 		bl	vex_chprintf
 1533              	.LVL189:
 1534              	.LBE94:
 1535              	.LBE93:
 1536              		.loc 1 407 0
 1537 00f0 A6E7     		b	.L157
 1538              	.L206:
 1539              	.LVL190:
ARM GAS  /var/folders/vt/qg0v_q5n5k99pnp_yg24c7s80000gn/T//ccSQB9Ph.s 			page 28


 1540              	.LBB95:
 1541              	.LBB96:
 1542              		.loc 1 322 0
 1543 00f2 3A4D     		ldr	r5, .L208+72
 1544 00f4 2868     		ldr	r0, [r5]
 1545 00f6 18B9     		cbnz	r0, .L177
 1546 00f8 31E0     		b	.L168
 1547              	.LVL191:
 1548              	.L207:
 1549 00fa 55F8080F 		ldr	r0, [r5, #8]!
 1550              	.LVL192:
 1551 00fe 70B3     		cbz	r0, .L168
 1552              	.LVL193:
 1553              	.L177:
 1554              		.loc 1 323 0
 1555 0100 3946     		mov	r1, r7
 1556 0102 FFF7FEFF 		bl	strcasecmp
 1557              	.LVL194:
 1558 0106 0028     		cmp	r0, #0
 1559 0108 F7D1     		bne	.L207
 1560              	.LVL195:
 1561              	.L202:
 1562              	.LBE96:
 1563              	.LBE95:
 1564              	.LBB97:
 1565              	.LBB98:
 1566              		.loc 1 324 0
 1567 010a 6B68     		ldr	r3, [r5, #4]
 1568 010c 03AA     		add	r2, sp, #12
 1569 010e 2146     		mov	r1, r4
 1570 0110 3046     		mov	r0, r6
 1571 0112 9847     		blx	r3
 1572              	.LVL196:
 1573 0114 94E7     		b	.L157
 1574              	.L169:
 1575              	.LBE98:
 1576              	.LBE97:
 1577              	.LBB100:
 1578              	.LBB101:
 1579              		.loc 1 124 0
 1580 0116 314D     		ldr	r5, .L208+72
 1581              	.LBE101:
 1582              	.LBE100:
 1583              		.loc 1 410 0
 1584 0118 3149     		ldr	r1, .L208+76
 1585 011a 3046     		mov	r0, r6
 1586 011c FFF7FEFF 		bl	vex_chprintf
 1587              	.LVL197:
 1588              	.LBB103:
 1589              	.LBB102:
 1590              		.loc 1 124 0
 1591 0120 2A68     		ldr	r2, [r5]
 1592 0122 2C46     		mov	r4, r5
 1593              	.LVL198:
 1594 0124 3AB1     		cbz	r2, .L174
 1595              	.LVL199:
 1596              	.L173:
ARM GAS  /var/folders/vt/qg0v_q5n5k99pnp_yg24c7s80000gn/T//ccSQB9Ph.s 			page 29


 1597              		.loc 1 126 0
 1598 0126 2F49     		ldr	r1, .L208+80
 1599 0128 3046     		mov	r0, r6
 1600 012a FFF7FEFF 		bl	vex_chprintf
 1601              	.LVL200:
 1602              		.loc 1 124 0
 1603 012e 54F8082F 		ldr	r2, [r4, #8]!
 1604              	.LVL201:
 1605 0132 002A     		cmp	r2, #0
 1606 0134 F7D1     		bne	.L173
 1607              	.LVL202:
 1608              	.L174:
 1609              	.LBE102:
 1610              	.LBE103:
 1611              		.loc 1 412 0
 1612 0136 B8F1000F 		cmp	r8, #0
 1613 013a 0BD0     		beq	.L172
 1614              	.LVL203:
 1615              	.LBB104:
 1616              	.LBB105:
 1617              		.loc 1 124 0
 1618 013c D8F80020 		ldr	r2, [r8]
 1619 0140 42B1     		cbz	r2, .L172
 1620 0142 4446     		mov	r4, r8
 1621              	.LVL204:
 1622              	.L175:
 1623              		.loc 1 126 0
 1624 0144 2749     		ldr	r1, .L208+80
 1625 0146 3046     		mov	r0, r6
 1626 0148 FFF7FEFF 		bl	vex_chprintf
 1627              	.LVL205:
 1628              		.loc 1 124 0
 1629 014c 54F8082F 		ldr	r2, [r4, #8]!
 1630              	.LVL206:
 1631 0150 002A     		cmp	r2, #0
 1632 0152 F7D1     		bne	.L175
 1633              	.LVL207:
 1634              	.L172:
 1635              	.LBE105:
 1636              	.LBE104:
 1637              		.loc 1 414 0
 1638 0154 2449     		ldr	r1, .L208+84
 1639 0156 3046     		mov	r0, r6
 1640 0158 FFF7FEFF 		bl	vex_chprintf
 1641              	.LVL208:
 1642 015c 70E7     		b	.L157
 1643              	.LVL209:
 1644              	.L168:
 1645              		.loc 1 417 0
 1646 015e B8F1000F 		cmp	r8, #0
 1647 0162 0DD0     		beq	.L180
 1648              	.LVL210:
 1649              	.LBB106:
 1650              	.LBB99:
 1651              		.loc 1 322 0
 1652 0164 D8F80000 		ldr	r0, [r8]
 1653 0168 50B1     		cbz	r0, .L180
ARM GAS  /var/folders/vt/qg0v_q5n5k99pnp_yg24c7s80000gn/T//ccSQB9Ph.s 			page 30


 1654 016a 4546     		mov	r5, r8
 1655 016c 02E0     		b	.L179
 1656              	.LVL211:
 1657              	.L178:
 1658 016e 55F8080F 		ldr	r0, [r5, #8]!
 1659              	.LVL212:
 1660 0172 28B1     		cbz	r0, .L180
 1661              	.LVL213:
 1662              	.L179:
 1663              		.loc 1 323 0
 1664 0174 3946     		mov	r1, r7
 1665 0176 FFF7FEFF 		bl	strcasecmp
 1666              	.LVL214:
 1667 017a 0028     		cmp	r0, #0
 1668 017c F7D1     		bne	.L178
 1669 017e C4E7     		b	.L202
 1670              	.LVL215:
 1671              	.L180:
 1672              	.LBE99:
 1673              	.LBE106:
 1674              		.loc 1 419 0
 1675 0180 3A46     		mov	r2, r7
 1676 0182 1A49     		ldr	r1, .L208+88
 1677 0184 3046     		mov	r0, r6
 1678 0186 FFF7FEFF 		bl	vex_chprintf
 1679              	.LVL216:
 1680              		.loc 1 420 0
 1681 018a 1949     		ldr	r1, .L208+92
 1682 018c 3046     		mov	r0, r6
 1683 018e FFF7FEFF 		bl	vex_chprintf
 1684              	.LVL217:
 1685 0192 55E7     		b	.L157
 1686              	.L209:
 1687              		.align	2
 1688              	.L208:
 1689 0194 00000000 		.word	rlist
 1690 0198 E8030000 		.word	.LC57
 1691 019c F0030000 		.word	.LC58
 1692 01a0 F8030000 		.word	.LC59
 1693 01a4 08020000 		.word	.LC29
 1694 01a8 CC000000 		.word	.LC15
 1695 01ac 14040000 		.word	.LC60
 1696 01b0 4C020000 		.word	.LC34
 1697 01b4 28020000 		.word	.LC32
 1698 01b8 24020000 		.word	.LC31
 1699 01bc 2C040000 		.word	.LC61
 1700 01c0 40040000 		.word	.LC62
 1701 01c4 6C040000 		.word	.LC65
 1702 01c8 B0000000 		.word	.LC12
 1703 01cc 54040000 		.word	.LC64
 1704 01d0 48040000 		.word	.LC63
 1705 01d4 00000000 		.word	.LANCHOR4
 1706 01d8 74040000 		.word	.LC66
 1707 01dc 00000000 		.word	.LANCHOR6
 1708 01e0 7C040000 		.word	.LC67
 1709 01e4 94040000 		.word	.LC68
 1710 01e8 E4030000 		.word	.LC56
ARM GAS  /var/folders/vt/qg0v_q5n5k99pnp_yg24c7s80000gn/T//ccSQB9Ph.s 			page 31


 1711 01ec D0030000 		.word	.LC52
 1712 01f0 98040000 		.word	.LC69
 1713              		.cfi_endproc
 1714              	.LFE73:
 1715              		.size	shell_thread, .-shell_thread
 1716              		.global	shell_terminated
 1717              		.section	.rodata
 1718              		.align	2
 1719              		.set	.LANCHOR3,. + 0
 1720              	.LC51:
 1721 0000 20003900 		.ascii	" \0009\000"
 1722              		.section	.bss.history.7854,"aw",%nobits
 1723              		.align	2
 1724              		.set	.LANCHOR5,. + 0
 1725              		.type	history.7854, %object
 1726              		.size	history.7854, 64
 1727              	history.7854:
 1728 0000 00000000 		.space	64
 1728      00000000 
 1728      00000000 
 1728      00000000 
 1728      00000000 
 1729              		.section	.rodata.states.7791,"a",%progbits
 1730              		.align	2
 1731              		.set	.LANCHOR2,. + 0
 1732              		.type	states.7791, %object
 1733              		.size	states.7791, 60
 1734              	states.7791:
 1735 0000 A0040000 		.word	.LC70
 1736 0004 A8040000 		.word	.LC71
 1737 0008 B0040000 		.word	.LC72
 1738 000c BC040000 		.word	.LC73
 1739 0010 C4040000 		.word	.LC74
 1740 0014 CC040000 		.word	.LC75
 1741 0018 D4040000 		.word	.LC76
 1742 001c E0040000 		.word	.LC77
 1743 0020 E8040000 		.word	.LC78
 1744 0024 F0040000 		.word	.LC79
 1745 0028 FC040000 		.word	.LC80
 1746 002c 04050000 		.word	.LC81
 1747 0030 0C050000 		.word	.LC82
 1748 0034 14050000 		.word	.LC83
 1749 0038 1C050000 		.word	.LC84
 1750              		.section	.data.shell_echo,"aw",%progbits
 1751              		.set	.LANCHOR0,. + 0
 1752              		.type	shell_echo, %object
 1753              		.size	shell_echo, 1
 1754              	shell_echo:
 1755 0000 01       		.byte	1
 1756              		.section	.rodata.str1.4,"aMS",%progbits,1
 1757              		.align	2
 1758              	.LC0:
 1759 0000 55736167 		.ascii	"Usage:flags [flag] [on|off]\015\012\000"
 1759      653A666C 
 1759      61677320 
 1759      5B666C61 
 1759      675D205B 
ARM GAS  /var/folders/vt/qg0v_q5n5k99pnp_yg24c7s80000gn/T//ccSQB9Ph.s 			page 32


 1760 001e 0000     		.space	2
 1761              	.LC1:
 1762 0020 20202020 		.ascii	"      example\015\012\000"
 1762      20206578 
 1762      616D706C 
 1762      650D0A00 
 1763              	.LC2:
 1764 0030 20202020 		.ascii	"      flags echo on\015\012\000"
 1764      2020666C 
 1764      61677320 
 1764      6563686F 
 1764      206F6E0D 
 1765 0046 0000     		.space	2
 1766              	.LC3:
 1767 0048 6563686F 		.ascii	"echo\000"
 1767      00
 1768 004d 000000   		.space	3
 1769              	.LC4:
 1770 0050 6F6E00   		.ascii	"on\000"
 1771 0053 00       		.space	1
 1772              	.LC5:
 1773 0054 6563686F 		.ascii	"echo is on\015\012\000"
 1773      20697320 
 1773      6F6E0D0A 
 1773      00
 1774 0061 000000   		.space	3
 1775              	.LC6:
 1776 0064 6F666600 		.ascii	"off\000"
 1777              	.LC7:
 1778 0068 6563686F 		.ascii	"echo is off\015\012\000"
 1778      20697320 
 1778      6F66660D 
 1778      0A00
 1779 0076 0000     		.space	2
 1780              	.LC8:
 1781 0078 62756672 		.ascii	"bufr\000"
 1781      00
 1782 007d 000000   		.space	3
 1783              	.LC9:
 1784 0080 62756666 		.ascii	"buffering is on\015\012\000"
 1784      6572696E 
 1784      67206973 
 1784      206F6E0D 
 1784      0A00
 1785 0092 0000     		.space	2
 1786              	.LC10:
 1787 0094 62756666 		.ascii	"buffering is off\015\012\000"
 1787      6572696E 
 1787      67206973 
 1787      206F6666 
 1787      0D0A00
 1788 00a7 00       		.space	1
 1789              	.LC11:
 1790 00a8 73797374 		.ascii	"systime\000"
 1790      696D6500 
 1791              	.LC12:
 1792 00b0 55736167 		.ascii	"Usage: %s\015\012\000"
ARM GAS  /var/folders/vt/qg0v_q5n5k99pnp_yg24c7s80000gn/T//ccSQB9Ph.s 			page 33


 1792      653A2025 
 1792      730D0A00 
 1793              	.LC13:
 1794 00bc 256C750D 		.ascii	"%lu\015\012\000"
 1794      0A00
 1795 00c2 0000     		.space	2
 1796              	.LC14:
 1797 00c4 696E666F 		.ascii	"info\000"
 1797      00
 1798 00c9 000000   		.space	3
 1799              	.LC15:
 1800 00cc 322E362E 		.ascii	"2.6.2\000"
 1800      3200
 1801 00d2 0000     		.space	2
 1802              	.LC16:
 1803 00d4 4B65726E 		.ascii	"Kernel:       %s\015\012\000"
 1803      656C3A20 
 1803      20202020 
 1803      20202573 
 1803      0D0A00
 1804 00e7 00       		.space	1
 1805              	.LC17:
 1806 00e8 47434320 		.ascii	"GCC 5.2.1 20151202 (release) [ARM/embedded-5-branch"
 1806      352E322E 
 1806      31203230 
 1806      31353132 
 1806      30322028 
 1807 011b 20726576 		.ascii	" revision 231848]\000"
 1807      6973696F 
 1807      6E203233 
 1807      31383438 
 1807      5D00
 1808 012d 000000   		.space	3
 1809              	.LC18:
 1810 0130 436F6D70 		.ascii	"Compiler:     %s\015\012\000"
 1810      696C6572 
 1810      3A202020 
 1810      20202573 
 1810      0D0A00
 1811 0143 00       		.space	1
 1812              	.LC19:
 1813 0144 41524D76 		.ascii	"ARMv7-M\000"
 1813      372D4D00 
 1814              	.LC20:
 1815 014c 41726368 		.ascii	"Architecture: %s\015\012\000"
 1815      69746563 
 1815      74757265 
 1815      3A202573 
 1815      0D0A00
 1816 015f 00       		.space	1
 1817              	.LC21:
 1818 0160 436F7274 		.ascii	"Cortex-M3\000"
 1818      65782D4D 
 1818      3300
 1819 016a 0000     		.space	2
 1820              	.LC22:
 1821 016c 436F7265 		.ascii	"Core Variant: %s\015\012\000"
ARM GAS  /var/folders/vt/qg0v_q5n5k99pnp_yg24c7s80000gn/T//ccSQB9Ph.s 			page 34


 1821      20566172 
 1821      69616E74 
 1821      3A202573 
 1821      0D0A00
 1822 017f 00       		.space	1
 1823              	.LC23:
 1824 0180 41647661 		.ascii	"Advanced kernel mode\000"
 1824      6E636564 
 1824      206B6572 
 1824      6E656C20 
 1824      6D6F6465 
 1825 0195 000000   		.space	3
 1826              	.LC24:
 1827 0198 506F7274 		.ascii	"Port Info:    %s\015\012\000"
 1827      20496E66 
 1827      6F3A2020 
 1827      20202573 
 1827      0D0A00
 1828 01ab 00       		.space	1
 1829              	.LC25:
 1830 01ac 53544D33 		.ascii	"STM32F10x Performance Line High Density\000"
 1830      32463130 
 1830      78205065 
 1830      72666F72 
 1830      6D616E63 
 1831              	.LC26:
 1832 01d4 506C6174 		.ascii	"Platform:     %s\015\012\000"
 1832      666F726D 
 1832      3A202020 
 1832      20202573 
 1832      0D0A00
 1833 01e7 00       		.space	1
 1834              	.LC27:
 1835 01e8 56455820 		.ascii	"VEX CORTEX\000"
 1835      434F5254 
 1835      455800
 1836 01f3 00       		.space	1
 1837              	.LC28:
 1838 01f4 426F6172 		.ascii	"Board:        %s\015\012\000"
 1838      643A2020 
 1838      20202020 
 1838      20202573 
 1838      0D0A00
 1839 0207 00       		.space	1
 1840              	.LC29:
 1841 0208 312E302E 		.ascii	"1.0.4\000"
 1841      3400
 1842 020e 0000     		.space	2
 1843              	.LC30:
 1844 0210 436F6E56 		.ascii	"ConVEX:       %s\015\012\000"
 1844      45583A20 
 1844      20202020 
 1844      20202573 
 1844      0D0A00
 1845 0223 00       		.space	1
 1846              	.LC31:
 1847 0224 202D2000 		.ascii	" - \000"
ARM GAS  /var/folders/vt/qg0v_q5n5k99pnp_yg24c7s80000gn/T//ccSQB9Ph.s 			page 35


 1848              	.LC32:
 1849 0228 4D617920 		.ascii	"May 20 2016\000"
 1849      32302032 
 1849      30313600 
 1850              	.LC33:
 1851 0234 4275696C 		.ascii	"Build time:   %s%s%s\015\012\000"
 1851      64207469 
 1851      6D653A20 
 1851      20202573 
 1851      25732573 
 1852 024b 00       		.space	1
 1853              	.LC34:
 1854 024c 30363A33 		.ascii	"06:38:28\000"
 1854      383A3238 
 1854      00
 1855 0255 000000   		.space	3
 1856              	.LC35:
 1857 0258 6F757470 		.ascii	"output\000"
 1857      757400
 1858 025f 00       		.space	1
 1859              	.LC36:
 1860 0260 50726F6A 		.ascii	"Project:      %s\015\012\000"
 1860      6563743A 
 1860      20202020 
 1860      20202573 
 1860      0D0A00
 1861 0273 00       		.space	1
 1862              	.LC37:
 1863 0274 62333833 		.ascii	"b38318e\000"
 1863      31386500 
 1864              	.LC38:
 1865 027c 47697420 		.ascii	"Git Hash:     %s\015\012\000"
 1865      48617368 
 1865      3A202020 
 1865      20202573 
 1865      0D0A00
 1866 028f 00       		.space	1
 1867              	.LC39:
 1868 0290 55736167 		.ascii	"Usage: reboot\015\012\000"
 1868      653A2072 
 1868      65626F6F 
 1868      740D0A00 
 1869              	.LC40:
 1870 02a0 7265626F 		.ascii	"rebooting...\015\012\000"
 1870      6F74696E 
 1870      672E2E2E 
 1870      0D0A00
 1871 02af 00       		.space	1
 1872              	.LC41:
 1873 02b0 55736167 		.ascii	"Usage: threads\015\012\000"
 1873      653A2074 
 1873      68726561 
 1873      64730D0A 
 1873      00
 1874 02c1 000000   		.space	3
 1875              	.LC42:
 1876 02c4 20202020 		.ascii	"            name addr     stack    prio refs     st"
ARM GAS  /var/folders/vt/qg0v_q5n5k99pnp_yg24c7s80000gn/T//ccSQB9Ph.s 			page 36


 1876      20202020 
 1876      20202020 
 1876      6E616D65 
 1876      20616464 
 1877 02f7 61746520 		.ascii	"ate time\015\012\000"
 1877      74696D65 
 1877      0D0A00
 1878 0302 0000     		.space	2
 1879              	.LC43:
 1880 0304 25313673 		.ascii	"%16s \000"
 1880      2000
 1881 030a 0000     		.space	2
 1882              	.LC44:
 1883 030c 20202020 		.ascii	"                 \000"
 1883      20202020 
 1883      20202020 
 1883      20202020 
 1883      2000
 1884 031e 0000     		.space	2
 1885              	.LC45:
 1886 0320 252E386C 		.ascii	"%.8lx %.8lx %4lu %4lu %9s %lu\015\012\000"
 1886      7820252E 
 1886      386C7820 
 1886      25346C75 
 1886      2025346C 
 1887              	.LC46:
 1888 0340 55736167 		.ascii	"Usage: mem\015\012\000"
 1888      653A206D 
 1888      656D0D0A 
 1888      00
 1889 034d 000000   		.space	3
 1890              	.LC47:
 1891 0350 636F7265 		.ascii	"core free memory : %u bytes\015\012\000"
 1891      20667265 
 1891      65206D65 
 1891      6D6F7279 
 1891      203A2025 
 1892 036e 0000     		.space	2
 1893              	.LC48:
 1894 0370 68656170 		.ascii	"heap fragments   : %u\015\012\000"
 1894      20667261 
 1894      676D656E 
 1894      74732020 
 1894      203A2025 
 1895              	.LC49:
 1896 0388 68656170 		.ascii	"heap free total  : %u bytes\015\012\000"
 1896      20667265 
 1896      6520746F 
 1896      74616C20 
 1896      203A2025 
 1897 03a6 0000     		.space	2
 1898              	.LC50:
 1899 03a8 666C6173 		.ascii	"flash used       : %lu (0x%05X) bytes\015\012\000"
 1899      68207573 
 1899      65642020 
 1899      20202020 
 1899      203A2025 
ARM GAS  /var/folders/vt/qg0v_q5n5k99pnp_yg24c7s80000gn/T//ccSQB9Ph.s 			page 37


 1900              	.LC52:
 1901 03d0 257300   		.ascii	"%s\000"
 1902 03d3 00       		.space	1
 1903              	.LC53:
 1904 03d4 5E4400   		.ascii	"^D\000"
 1905 03d7 00       		.space	1
 1906              	.LC54:
 1907 03d8 25632025 		.ascii	"%c %c\000"
 1907      6300
 1908 03de 0000     		.space	2
 1909              	.LC55:
 1910 03e0 256300   		.ascii	"%c\000"
 1911 03e3 00       		.space	1
 1912              	.LC56:
 1913 03e4 0D0A00   		.ascii	"\015\012\000"
 1914 03e7 00       		.space	1
 1915              	.LC57:
 1916 03e8 7368656C 		.ascii	"shell\000"
 1916      6C00
 1917 03ee 0000     		.space	2
 1918              	.LC58:
 1919 03f0 1B5B324A 		.ascii	"\033[2J\000"
 1919      00
 1920 03f5 000000   		.space	3
 1921              	.LC59:
 1922 03f8 0D0A5645 		.ascii	"\015\012VEX-Cortex Shell V1.00\015\012\000"
 1922      582D436F 
 1922      72746578 
 1922      20536865 
 1922      6C6C2056 
 1923 0413 00       		.space	1
 1924              	.LC60:
 1925 0414 4B65726E 		.ascii	"Kernel:%s  ConVEX:%s  \000"
 1925      656C3A25 
 1925      73202043 
 1925      6F6E5645 
 1925      583A2573 
 1926 042b 00       		.space	1
 1927              	.LC61:
 1928 042c 4275696C 		.ascii	"Build time:%s%s%s\015\012\000"
 1928      64207469 
 1928      6D653A25 
 1928      73257325 
 1928      730D0A00 
 1929              	.LC62:
 1930 0440 63683E20 		.ascii	"ch> \000"
 1930      00
 1931 0445 000000   		.space	3
 1932              	.LC63:
 1933 0448 0D0A6C6F 		.ascii	"\015\012logout\000"
 1933      676F7574 
 1933      00
 1934 0451 000000   		.space	3
 1935              	.LC64:
 1936 0454 746F6F20 		.ascii	"too many arguments\015\012\000"
 1936      6D616E79 
 1936      20617267 
ARM GAS  /var/folders/vt/qg0v_q5n5k99pnp_yg24c7s80000gn/T//ccSQB9Ph.s 			page 38


 1936      756D656E 
 1936      74730D0A 
 1937 0469 000000   		.space	3
 1938              	.LC65:
 1939 046c 65786974 		.ascii	"exit\000"
 1939      00
 1940 0471 000000   		.space	3
 1941              	.LC66:
 1942 0474 68656C70 		.ascii	"help\000"
 1942      00
 1943 0479 000000   		.space	3
 1944              	.LC67:
 1945 047c 436F6D6D 		.ascii	"Commands: help exit \000"
 1945      616E6473 
 1945      3A206865 
 1945      6C702065 
 1945      78697420 
 1946 0491 000000   		.space	3
 1947              	.LC68:
 1948 0494 25732000 		.ascii	"%s \000"
 1949              	.LC69:
 1950 0498 203F0D0A 		.ascii	" ?\015\012\000"
 1950      00
 1951 049d 000000   		.space	3
 1952              	.LC70:
 1953 04a0 52454144 		.ascii	"READY\000"
 1953      5900
 1954 04a6 0000     		.space	2
 1955              	.LC71:
 1956 04a8 43555252 		.ascii	"CURRENT\000"
 1956      454E5400 
 1957              	.LC72:
 1958 04b0 53555350 		.ascii	"SUSPENDED\000"
 1958      454E4445 
 1958      4400
 1959 04ba 0000     		.space	2
 1960              	.LC73:
 1961 04bc 57545345 		.ascii	"WTSEM\000"
 1961      4D00
 1962 04c2 0000     		.space	2
 1963              	.LC74:
 1964 04c4 57544D54 		.ascii	"WTMTX\000"
 1964      5800
 1965 04ca 0000     		.space	2
 1966              	.LC75:
 1967 04cc 5754434F 		.ascii	"WTCOND\000"
 1967      4E4400
 1968 04d3 00       		.space	1
 1969              	.LC76:
 1970 04d4 534C4545 		.ascii	"SLEEPING\000"
 1970      50494E47 
 1970      00
 1971 04dd 000000   		.space	3
 1972              	.LC77:
 1973 04e0 57544558 		.ascii	"WTEXIT\000"
 1973      495400
 1974 04e7 00       		.space	1
ARM GAS  /var/folders/vt/qg0v_q5n5k99pnp_yg24c7s80000gn/T//ccSQB9Ph.s 			page 39


 1975              	.LC78:
 1976 04e8 57544F52 		.ascii	"WTOREVT\000"
 1976      45565400 
 1977              	.LC79:
 1978 04f0 5754414E 		.ascii	"WTANDEVT\000"
 1978      44455654 
 1978      00
 1979 04f9 000000   		.space	3
 1980              	.LC80:
 1981 04fc 534E444D 		.ascii	"SNDMSGQ\000"
 1981      53475100 
 1982              	.LC81:
 1983 0504 534E444D 		.ascii	"SNDMSG\000"
 1983      534700
 1984 050b 00       		.space	1
 1985              	.LC82:
 1986 050c 57544D53 		.ascii	"WTMSG\000"
 1986      4700
 1987 0512 0000     		.space	2
 1988              	.LC83:
 1989 0514 57545155 		.ascii	"WTQUEUE\000"
 1989      45554500 
 1990              	.LC84:
 1991 051c 46494E41 		.ascii	"FINAL\000"
 1991      4C00
 1992 0522 0000     		.space	2
 1993              	.LC85:
 1994 0524 6D656D00 		.ascii	"mem\000"
 1995              	.LC86:
 1996 0528 74687265 		.ascii	"threads\000"
 1996      61647300 
 1997              	.LC87:
 1998 0530 7265626F 		.ascii	"reboot\000"
 1998      6F7400
 1999 0537 00       		.space	1
 2000              	.LC88:
 2001 0538 666C6167 		.ascii	"flags\000"
 2001      7300
 2002              		.section	.data.shell_bufr,"aw",%progbits
 2003              		.set	.LANCHOR1,. + 0
 2004              		.type	shell_bufr, %object
 2005              		.size	shell_bufr, 1
 2006              	shell_bufr:
 2007 0000 01       		.byte	1
 2008              		.section	.bss.shell_terminated,"aw",%nobits
 2009              		.align	2
 2010              		.set	.LANCHOR4,. + 0
 2011              		.type	shell_terminated, %object
 2012              		.size	shell_terminated, 4
 2013              	shell_terminated:
 2014 0000 00000000 		.space	4
 2015              		.section	.data.local_commands,"aw",%progbits
 2016              		.align	2
 2017              		.set	.LANCHOR6,. + 0
 2018              		.type	local_commands, %object
 2019              		.size	local_commands, 56
 2020              	local_commands:
ARM GAS  /var/folders/vt/qg0v_q5n5k99pnp_yg24c7s80000gn/T//ccSQB9Ph.s 			page 40


 2021 0000 C4000000 		.word	.LC14
 2022 0004 00000000 		.word	cmd_info
 2023 0008 A8000000 		.word	.LC11
 2024 000c 00000000 		.word	cmd_systime
 2025 0010 24050000 		.word	.LC85
 2026 0014 00000000 		.word	cmd_mem
 2027 0018 28050000 		.word	.LC86
 2028 001c 00000000 		.word	cmd_threads
 2029 0020 30050000 		.word	.LC87
 2030 0024 00000000 		.word	cmd_reboot
 2031 0028 38050000 		.word	.LC88
 2032 002c 00000000 		.word	cmd_flags
 2033 0030 00000000 		.word	0
 2034 0034 00000000 		.word	0
 2035              		.text
 2036              	.Letext0:
 2037              		.file 4 "/usr/local/gcc-arm-none-eabi-5_2-2015q4/lib/gcc/arm-none-eabi/5.2.1/include/stddef.h"
 2038              		.file 5 "/usr/local/gcc-arm-none-eabi-5_2-2015q4/arm-none-eabi/include/machine/_default_types.h"
 2039              		.file 6 "/usr/local/gcc-arm-none-eabi-5_2-2015q4/arm-none-eabi/include/sys/_stdint.h"
 2040              		.file 7 "../../ChibiOS/os/ports/GCC/ARMCMx/chtypes.h"
 2041              		.file 8 "../../ChibiOS/os/kernel/include/chlists.h"
 2042              		.file 9 "../../ChibiOS/os/kernel/include/chthreads.h"
 2043              		.file 10 "../../ChibiOS/os/ports/GCC/ARMCMx/chcore_v7m.h"
 2044              		.file 11 "../../ChibiOS/os/kernel/include/chvt.h"
 2045              		.file 12 "../../ChibiOS/os/kernel/include/chschd.h"
 2046              		.file 13 "../../ChibiOS/os/kernel/include/chmtx.h"
 2047              		.file 14 "../../ChibiOS/os/kernel/include/chevents.h"
 2048              		.file 15 "../../ChibiOS/os/kernel/include/chstreams.h"
 2049              		.file 16 "../../convex/convex/cortex/fw/vexcompat.h"
 2050              		.file 17 "../../convex/convex/cortex/fw/vexdigital.h"
 2051              		.file 18 "../../convex/convex/cortex/fw/vexime.h"
 2052              		.file 19 "../../convex/convex/cortex/fw/vexshell.h"
 2053              		.file 20 "/usr/local/gcc-arm-none-eabi-5_2-2015q4/arm-none-eabi/include/string.h"
 2054              		.file 21 "../../convex/convex/cortex/fw/vexprintf.h"
 2055              		.file 22 "../../ChibiOS/os/kernel/include/chregistry.h"
 2056              		.file 23 "../../ChibiOS/os/kernel/include/chheap.h"
 2057              		.file 24 "../../ChibiOS/os/kernel/include/chmemcore.h"
 2058              		.file 25 "../../ChibiOS/os/kernel/include/chdynamic.h"
 2059              		.file 26 "<built-in>"