ARM GAS  /var/folders/vt/qg0v_q5n5k99pnp_yg24c7s80000gn/T//cc1DAyOJ.s 			page 1


   1              		.syntax unified
   2              		.cpu cortex-m3
   3              		.fpu softvfp
   4              		.eabi_attribute 20, 1
   5              		.eabi_attribute 21, 1
   6              		.eabi_attribute 23, 3
   7              		.eabi_attribute 24, 1
   8              		.eabi_attribute 25, 1
   9              		.eabi_attribute 26, 1
  10              		.eabi_attribute 30, 2
  11              		.eabi_attribute 34, 1
  12              		.eabi_attribute 18, 4
  13              		.thumb
  14              		.syntax unified
  15              		.file	"vexuser.c"
  16              		.text
  17              	.Ltext0:
  18              		.cfi_sections	.debug_frame
  19              		.section	.text.vexUserSetup,"ax",%progbits
  20              		.align	2
  21              		.p2align 4,,15
  22              		.weak	vexUserSetup
  23              		.thumb
  24              		.thumb_func
  25              		.type	vexUserSetup, %function
  26              	vexUserSetup:
  27              	.LFB63:
  28              		.file 1 "vexuser.c"
  29              		.loc 1 58 0
  30              		.cfi_startproc
  31              		@ args = 0, pretend = 0, frame = 0
  32              		@ frame_needed = 0, uses_anonymous_args = 0
  33              		@ link register save eliminated.
  34              		.loc 1 59 0
  35 0000 FFF7FEBF 		b	vexCortexDefaultSetup
  36              	.LVL0:
  37              		.cfi_endproc
  38              	.LFE63:
  39              		.size	vexUserSetup, .-vexUserSetup
  40              		.section	.text.vexUserInit,"ax",%progbits
  41              		.align	2
  42              		.p2align 4,,15
  43              		.weak	vexUserInit
  44              		.thumb
  45              		.thumb_func
  46              		.type	vexUserInit, %function
  47              	vexUserInit:
  48              	.LFB64:
  49              		.loc 1 65 0
  50              		.cfi_startproc
  51              		@ args = 0, pretend = 0, frame = 0
  52              		@ frame_needed = 0, uses_anonymous_args = 0
  53 0000 08B5     		push	{r3, lr}
  54              		.cfi_def_cfa_offset 8
  55              		.cfi_offset 3, -8
  56              		.cfi_offset 14, -4
  57              		.loc 1 66 0
ARM GAS  /var/folders/vt/qg0v_q5n5k99pnp_yg24c7s80000gn/T//cc1DAyOJ.s 			page 2


  58 0002 FFF7FEFF 		bl	SmartMotorsInit
  59              	.LVL1:
  60              		.loc 1 67 0
  61 0006 FFF7FEFF 		bl	SmartMotorCurrentMonitorEnable
  62              	.LVL2:
  63              		.loc 1 69 0
  64 000a BDE80840 		pop	{r3, lr}
  65              		.cfi_restore 14
  66              		.cfi_restore 3
  67              		.cfi_def_cfa_offset 0
  68              		.loc 1 68 0
  69 000e FFF7FEBF 		b	SmartMotorRun
  70              	.LVL3:
  71              		.cfi_endproc
  72              	.LFE64:
  73              		.size	vexUserInit, .-vexUserInit
  74 0012 00BF     		.section	.text.vexAutonomous,"ax",%progbits
  75              		.align	2
  76              		.p2align 4,,15
  77              		.global	vexAutonomous
  78              		.thumb
  79              		.thumb_func
  80              		.type	vexAutonomous, %function
  81              	vexAutonomous:
  82              	.LFB65:
  83              		.loc 1 74 0
  84              		.cfi_startproc
  85              		@ Volatile: function does not return.
  86              		@ args = 0, pretend = 0, frame = 0
  87              		@ frame_needed = 0, uses_anonymous_args = 0
  88              	.LVL4:
  89 0000 08B5     		push	{r3, lr}
  90              		.cfi_def_cfa_offset 8
  91              		.cfi_offset 3, -8
  92              		.cfi_offset 14, -4
  93              		.loc 1 78 0
  94 0002 0348     		ldr	r0, .L8
  95              	.LVL5:
  96 0004 FFF7FEFF 		bl	vexTaskRegister
  97              	.LVL6:
  98              	.L5:
  99              		.loc 1 83 0 discriminator 1
 100 0008 1920     		movs	r0, #25
 101 000a FFF7FEFF 		bl	vexSleep
 102              	.LVL7:
 103 000e FBE7     		b	.L5
 104              	.L9:
 105              		.align	2
 106              	.L8:
 107 0010 00000000 		.word	.LC0
 108              		.cfi_endproc
 109              	.LFE65:
 110              		.size	vexAutonomous, .-vexAutonomous
 111              		.section	.text.vexOperator,"ax",%progbits
 112              		.align	2
 113              		.p2align 4,,15
 114              		.global	vexOperator
ARM GAS  /var/folders/vt/qg0v_q5n5k99pnp_yg24c7s80000gn/T//cc1DAyOJ.s 			page 3


 115              		.thumb
 116              		.thumb_func
 117              		.type	vexOperator, %function
 118              	vexOperator:
 119              	.LFB66:
 120              		.loc 1 93 0
 121              		.cfi_startproc
 122              		@ args = 0, pretend = 0, frame = 0
 123              		@ frame_needed = 0, uses_anonymous_args = 0
 124              	.LVL8:
 125 0000 08B5     		push	{r3, lr}
 126              		.cfi_def_cfa_offset 8
 127              		.cfi_offset 3, -8
 128              		.cfi_offset 14, -4
 129              		.loc 1 97 0
 130 0002 0348     		ldr	r0, .L12
 131              	.LVL9:
 132 0004 FFF7FEFF 		bl	vexTaskRegister
 133              	.LVL10:
 134              		.loc 1 100 0
 135 0008 FFF7FEFF 		bl	vexCortexDefaultDriver
 136              	.LVL11:
 137              		.loc 1 103 0
 138 000c 0020     		movs	r0, #0
 139 000e 08BD     		pop	{r3, pc}
 140              	.L13:
 141              		.align	2
 142              	.L12:
 143 0010 08000000 		.word	.LC1
 144              		.cfi_endproc
 145              	.LFE66:
 146              		.size	vexOperator, .-vexOperator
 147              		.section	.rodata.str1.4,"aMS",%progbits,1
 148              		.align	2
 149              	.LC0:
 150 0000 6175746F 		.ascii	"auton\000"
 150      6E00
 151 0006 0000     		.space	2
 152              	.LC1:
 153 0008 6F706572 		.ascii	"operator\000"
 153      61746F72 
 153      00
 154              		.text
 155              	.Letext0:
 156              		.file 2 "/usr/local/gcc-arm-none-eabi-5_2-2015q4/arm-none-eabi/include/machine/_default_types.h"
 157              		.file 3 "/usr/local/gcc-arm-none-eabi-5_2-2015q4/arm-none-eabi/include/sys/_stdint.h"
 158              		.file 4 "../../ChibiOS/os/ports/GCC/ARMCMx/chtypes.h"
 159              		.file 5 "../../convex/convex/cortex/opt/smartmotor.h"
 160              		.file 6 "../../convex/convex/cortex/fw/vex.h"
 161              		.file 7 "../../ChibiOS/os/ports/common/ARMCMx/CMSIS/include/core_cm3.h"